
bufbomb:     file format elf32-i386


Disassembly of section .init:

080487c4 <_init>:
 80487c4:	53                   	push   %ebx
 80487c5:	83 ec 08             	sub    $0x8,%esp
 80487c8:	e8 d3 02 00 00       	call   8048aa0 <__x86.get_pc_thunk.bx>
 80487cd:	81 c3 33 48 00 00    	add    $0x4833,%ebx
 80487d3:	8b 83 fc ff ff ff    	mov    -0x4(%ebx),%eax
 80487d9:	85 c0                	test   %eax,%eax
 80487db:	74 05                	je     80487e2 <_init+0x1e>
 80487dd:	e8 1e 01 00 00       	call   8048900 <__gmon_start__@plt>
 80487e2:	83 c4 08             	add    $0x8,%esp
 80487e5:	5b                   	pop    %ebx
 80487e6:	c3                   	ret    

Disassembly of section .plt:

080487f0 <.plt>:
 80487f0:	ff 35 04 d0 04 08    	pushl  0x804d004
 80487f6:	ff 25 08 d0 04 08    	jmp    *0x804d008
 80487fc:	00 00                	add    %al,(%eax)
	...

08048800 <strcmp@plt>:
 8048800:	ff 25 0c d0 04 08    	jmp    *0x804d00c
 8048806:	68 00 00 00 00       	push   $0x0
 804880b:	e9 e0 ff ff ff       	jmp    80487f0 <.plt>

08048810 <read@plt>:
 8048810:	ff 25 10 d0 04 08    	jmp    *0x804d010
 8048816:	68 08 00 00 00       	push   $0x8
 804881b:	e9 d0 ff ff ff       	jmp    80487f0 <.plt>

08048820 <srandom@plt>:
 8048820:	ff 25 14 d0 04 08    	jmp    *0x804d014
 8048826:	68 10 00 00 00       	push   $0x10
 804882b:	e9 c0 ff ff ff       	jmp    80487f0 <.plt>

08048830 <printf@plt>:
 8048830:	ff 25 18 d0 04 08    	jmp    *0x804d018
 8048836:	68 18 00 00 00       	push   $0x18
 804883b:	e9 b0 ff ff ff       	jmp    80487f0 <.plt>

08048840 <memmove@plt>:
 8048840:	ff 25 1c d0 04 08    	jmp    *0x804d01c
 8048846:	68 20 00 00 00       	push   $0x20
 804884b:	e9 a0 ff ff ff       	jmp    80487f0 <.plt>

08048850 <strdup@plt>:
 8048850:	ff 25 20 d0 04 08    	jmp    *0x804d020
 8048856:	68 28 00 00 00       	push   $0x28
 804885b:	e9 90 ff ff ff       	jmp    80487f0 <.plt>

08048860 <memcpy@plt>:
 8048860:	ff 25 24 d0 04 08    	jmp    *0x804d024
 8048866:	68 30 00 00 00       	push   $0x30
 804886b:	e9 80 ff ff ff       	jmp    80487f0 <.plt>

08048870 <signal@plt>:
 8048870:	ff 25 28 d0 04 08    	jmp    *0x804d028
 8048876:	68 38 00 00 00       	push   $0x38
 804887b:	e9 70 ff ff ff       	jmp    80487f0 <.plt>

08048880 <alarm@plt>:
 8048880:	ff 25 2c d0 04 08    	jmp    *0x804d02c
 8048886:	68 40 00 00 00       	push   $0x40
 804888b:	e9 60 ff ff ff       	jmp    80487f0 <.plt>

08048890 <_IO_getc@plt>:
 8048890:	ff 25 30 d0 04 08    	jmp    *0x804d030
 8048896:	68 48 00 00 00       	push   $0x48
 804889b:	e9 50 ff ff ff       	jmp    80487f0 <.plt>

080488a0 <htons@plt>:
 80488a0:	ff 25 34 d0 04 08    	jmp    *0x804d034
 80488a6:	68 50 00 00 00       	push   $0x50
 80488ab:	e9 40 ff ff ff       	jmp    80487f0 <.plt>

080488b0 <fwrite@plt>:
 80488b0:	ff 25 38 d0 04 08    	jmp    *0x804d038
 80488b6:	68 58 00 00 00       	push   $0x58
 80488bb:	e9 30 ff ff ff       	jmp    80487f0 <.plt>

080488c0 <strcpy@plt>:
 80488c0:	ff 25 3c d0 04 08    	jmp    *0x804d03c
 80488c6:	68 60 00 00 00       	push   $0x60
 80488cb:	e9 20 ff ff ff       	jmp    80487f0 <.plt>

080488d0 <getpid@plt>:
 80488d0:	ff 25 40 d0 04 08    	jmp    *0x804d040
 80488d6:	68 68 00 00 00       	push   $0x68
 80488db:	e9 10 ff ff ff       	jmp    80487f0 <.plt>

080488e0 <gethostname@plt>:
 80488e0:	ff 25 44 d0 04 08    	jmp    *0x804d044
 80488e6:	68 70 00 00 00       	push   $0x70
 80488eb:	e9 00 ff ff ff       	jmp    80487f0 <.plt>

080488f0 <puts@plt>:
 80488f0:	ff 25 48 d0 04 08    	jmp    *0x804d048
 80488f6:	68 78 00 00 00       	push   $0x78
 80488fb:	e9 f0 fe ff ff       	jmp    80487f0 <.plt>

08048900 <__gmon_start__@plt>:
 8048900:	ff 25 4c d0 04 08    	jmp    *0x804d04c
 8048906:	68 80 00 00 00       	push   $0x80
 804890b:	e9 e0 fe ff ff       	jmp    80487f0 <.plt>

08048910 <exit@plt>:
 8048910:	ff 25 50 d0 04 08    	jmp    *0x804d050
 8048916:	68 88 00 00 00       	push   $0x88
 804891b:	e9 d0 fe ff ff       	jmp    80487f0 <.plt>

08048920 <srand@plt>:
 8048920:	ff 25 54 d0 04 08    	jmp    *0x804d054
 8048926:	68 90 00 00 00       	push   $0x90
 804892b:	e9 c0 fe ff ff       	jmp    80487f0 <.plt>

08048930 <mmap@plt>:
 8048930:	ff 25 58 d0 04 08    	jmp    *0x804d058
 8048936:	68 98 00 00 00       	push   $0x98
 804893b:	e9 b0 fe ff ff       	jmp    80487f0 <.plt>

08048940 <strlen@plt>:
 8048940:	ff 25 5c d0 04 08    	jmp    *0x804d05c
 8048946:	68 a0 00 00 00       	push   $0xa0
 804894b:	e9 a0 fe ff ff       	jmp    80487f0 <.plt>

08048950 <__libc_start_main@plt>:
 8048950:	ff 25 60 d0 04 08    	jmp    *0x804d060
 8048956:	68 a8 00 00 00       	push   $0xa8
 804895b:	e9 90 fe ff ff       	jmp    80487f0 <.plt>

08048960 <write@plt>:
 8048960:	ff 25 64 d0 04 08    	jmp    *0x804d064
 8048966:	68 b0 00 00 00       	push   $0xb0
 804896b:	e9 80 fe ff ff       	jmp    80487f0 <.plt>

08048970 <getopt@plt>:
 8048970:	ff 25 68 d0 04 08    	jmp    *0x804d068
 8048976:	68 b8 00 00 00       	push   $0xb8
 804897b:	e9 70 fe ff ff       	jmp    80487f0 <.plt>

08048980 <strcasecmp@plt>:
 8048980:	ff 25 6c d0 04 08    	jmp    *0x804d06c
 8048986:	68 c0 00 00 00       	push   $0xc0
 804898b:	e9 60 fe ff ff       	jmp    80487f0 <.plt>

08048990 <__isoc99_sscanf@plt>:
 8048990:	ff 25 70 d0 04 08    	jmp    *0x804d070
 8048996:	68 c8 00 00 00       	push   $0xc8
 804899b:	e9 50 fe ff ff       	jmp    80487f0 <.plt>

080489a0 <memset@plt>:
 80489a0:	ff 25 74 d0 04 08    	jmp    *0x804d074
 80489a6:	68 d0 00 00 00       	push   $0xd0
 80489ab:	e9 40 fe ff ff       	jmp    80487f0 <.plt>

080489b0 <__errno_location@plt>:
 80489b0:	ff 25 78 d0 04 08    	jmp    *0x804d078
 80489b6:	68 d8 00 00 00       	push   $0xd8
 80489bb:	e9 30 fe ff ff       	jmp    80487f0 <.plt>

080489c0 <rand@plt>:
 80489c0:	ff 25 7c d0 04 08    	jmp    *0x804d07c
 80489c6:	68 e0 00 00 00       	push   $0xe0
 80489cb:	e9 20 fe ff ff       	jmp    80487f0 <.plt>

080489d0 <munmap@plt>:
 80489d0:	ff 25 80 d0 04 08    	jmp    *0x804d080
 80489d6:	68 e8 00 00 00       	push   $0xe8
 80489db:	e9 10 fe ff ff       	jmp    80487f0 <.plt>

080489e0 <sprintf@plt>:
 80489e0:	ff 25 84 d0 04 08    	jmp    *0x804d084
 80489e6:	68 f0 00 00 00       	push   $0xf0
 80489eb:	e9 00 fe ff ff       	jmp    80487f0 <.plt>

080489f0 <socket@plt>:
 80489f0:	ff 25 88 d0 04 08    	jmp    *0x804d088
 80489f6:	68 f8 00 00 00       	push   $0xf8
 80489fb:	e9 f0 fd ff ff       	jmp    80487f0 <.plt>

08048a00 <random@plt>:
 8048a00:	ff 25 8c d0 04 08    	jmp    *0x804d08c
 8048a06:	68 00 01 00 00       	push   $0x100
 8048a0b:	e9 e0 fd ff ff       	jmp    80487f0 <.plt>

08048a10 <gethostbyname@plt>:
 8048a10:	ff 25 90 d0 04 08    	jmp    *0x804d090
 8048a16:	68 08 01 00 00       	push   $0x108
 8048a1b:	e9 d0 fd ff ff       	jmp    80487f0 <.plt>

08048a20 <connect@plt>:
 8048a20:	ff 25 94 d0 04 08    	jmp    *0x804d094
 8048a26:	68 10 01 00 00       	push   $0x110
 8048a2b:	e9 c0 fd ff ff       	jmp    80487f0 <.plt>

08048a30 <close@plt>:
 8048a30:	ff 25 98 d0 04 08    	jmp    *0x804d098
 8048a36:	68 18 01 00 00       	push   $0x118
 8048a3b:	e9 b0 fd ff ff       	jmp    80487f0 <.plt>

08048a40 <calloc@plt>:
 8048a40:	ff 25 9c d0 04 08    	jmp    *0x804d09c
 8048a46:	68 20 01 00 00       	push   $0x120
 8048a4b:	e9 a0 fd ff ff       	jmp    80487f0 <.plt>

Disassembly of section .text:

08048a50 <_start>:
 8048a50:	31 ed                	xor    %ebp,%ebp
 8048a52:	5e                   	pop    %esi
 8048a53:	89 e1                	mov    %esp,%ecx
 8048a55:	83 e4 f0             	and    $0xfffffff0,%esp
 8048a58:	50                   	push   %eax
 8048a59:	54                   	push   %esp
 8048a5a:	52                   	push   %edx
 8048a5b:	e8 23 00 00 00       	call   8048a83 <_start+0x33>
 8048a60:	81 c3 a0 45 00 00    	add    $0x45a0,%ebx
 8048a66:	8d 83 e0 d2 ff ff    	lea    -0x2d20(%ebx),%eax
 8048a6c:	50                   	push   %eax
 8048a6d:	8d 83 80 d2 ff ff    	lea    -0x2d80(%ebx),%eax
 8048a73:	50                   	push   %eax
 8048a74:	51                   	push   %ecx
 8048a75:	56                   	push   %esi
 8048a76:	c7 c0 b4 90 04 08    	mov    $0x80490b4,%eax
 8048a7c:	50                   	push   %eax
 8048a7d:	e8 ce fe ff ff       	call   8048950 <__libc_start_main@plt>
 8048a82:	f4                   	hlt    
 8048a83:	8b 1c 24             	mov    (%esp),%ebx
 8048a86:	c3                   	ret    
 8048a87:	66 90                	xchg   %ax,%ax
 8048a89:	66 90                	xchg   %ax,%ax
 8048a8b:	66 90                	xchg   %ax,%ax
 8048a8d:	66 90                	xchg   %ax,%ax
 8048a8f:	90                   	nop

08048a90 <_dl_relocate_static_pie>:
 8048a90:	c3                   	ret    
 8048a91:	66 90                	xchg   %ax,%ax
 8048a93:	66 90                	xchg   %ax,%ax
 8048a95:	66 90                	xchg   %ax,%ax
 8048a97:	66 90                	xchg   %ax,%ax
 8048a99:	66 90                	xchg   %ax,%ax
 8048a9b:	66 90                	xchg   %ax,%ax
 8048a9d:	66 90                	xchg   %ax,%ax
 8048a9f:	90                   	nop

08048aa0 <__x86.get_pc_thunk.bx>:
 8048aa0:	8b 1c 24             	mov    (%esp),%ebx
 8048aa3:	c3                   	ret    
 8048aa4:	66 90                	xchg   %ax,%ax
 8048aa6:	66 90                	xchg   %ax,%ax
 8048aa8:	66 90                	xchg   %ax,%ax
 8048aaa:	66 90                	xchg   %ax,%ax
 8048aac:	66 90                	xchg   %ax,%ax
 8048aae:	66 90                	xchg   %ax,%ax

08048ab0 <deregister_tm_clones>:
 8048ab0:	b8 d4 e0 04 08       	mov    $0x804e0d4,%eax
 8048ab5:	3d d4 e0 04 08       	cmp    $0x804e0d4,%eax
 8048aba:	74 24                	je     8048ae0 <deregister_tm_clones+0x30>
 8048abc:	b8 00 00 00 00       	mov    $0x0,%eax
 8048ac1:	85 c0                	test   %eax,%eax
 8048ac3:	74 1b                	je     8048ae0 <deregister_tm_clones+0x30>
 8048ac5:	55                   	push   %ebp
 8048ac6:	89 e5                	mov    %esp,%ebp
 8048ac8:	83 ec 14             	sub    $0x14,%esp
 8048acb:	68 d4 e0 04 08       	push   $0x804e0d4
 8048ad0:	ff d0                	call   *%eax
 8048ad2:	83 c4 10             	add    $0x10,%esp
 8048ad5:	c9                   	leave  
 8048ad6:	c3                   	ret    
 8048ad7:	89 f6                	mov    %esi,%esi
 8048ad9:	8d bc 27 00 00 00 00 	lea    0x0(%edi,%eiz,1),%edi
 8048ae0:	c3                   	ret    
 8048ae1:	eb 0d                	jmp    8048af0 <register_tm_clones>
 8048ae3:	90                   	nop
 8048ae4:	90                   	nop
 8048ae5:	90                   	nop
 8048ae6:	90                   	nop
 8048ae7:	90                   	nop
 8048ae8:	90                   	nop
 8048ae9:	90                   	nop
 8048aea:	90                   	nop
 8048aeb:	90                   	nop
 8048aec:	90                   	nop
 8048aed:	90                   	nop
 8048aee:	90                   	nop
 8048aef:	90                   	nop

08048af0 <register_tm_clones>:
 8048af0:	b8 d4 e0 04 08       	mov    $0x804e0d4,%eax
 8048af5:	2d d4 e0 04 08       	sub    $0x804e0d4,%eax
 8048afa:	c1 f8 02             	sar    $0x2,%eax
 8048afd:	89 c2                	mov    %eax,%edx
 8048aff:	c1 ea 1f             	shr    $0x1f,%edx
 8048b02:	01 d0                	add    %edx,%eax
 8048b04:	d1 f8                	sar    %eax
 8048b06:	74 20                	je     8048b28 <register_tm_clones+0x38>
 8048b08:	ba 00 00 00 00       	mov    $0x0,%edx
 8048b0d:	85 d2                	test   %edx,%edx
 8048b0f:	74 17                	je     8048b28 <register_tm_clones+0x38>
 8048b11:	55                   	push   %ebp
 8048b12:	89 e5                	mov    %esp,%ebp
 8048b14:	83 ec 10             	sub    $0x10,%esp
 8048b17:	50                   	push   %eax
 8048b18:	68 d4 e0 04 08       	push   $0x804e0d4
 8048b1d:	ff d2                	call   *%edx
 8048b1f:	83 c4 10             	add    $0x10,%esp
 8048b22:	c9                   	leave  
 8048b23:	c3                   	ret    
 8048b24:	8d 74 26 00          	lea    0x0(%esi,%eiz,1),%esi
 8048b28:	c3                   	ret    
 8048b29:	8d b4 26 00 00 00 00 	lea    0x0(%esi,%eiz,1),%esi

08048b30 <__do_global_dtors_aux>:
 8048b30:	f3 0f 1e fb          	endbr32 
 8048b34:	80 3d 0c e1 04 08 00 	cmpb   $0x0,0x804e10c
 8048b3b:	75 1b                	jne    8048b58 <__do_global_dtors_aux+0x28>
 8048b3d:	55                   	push   %ebp
 8048b3e:	89 e5                	mov    %esp,%ebp
 8048b40:	83 ec 08             	sub    $0x8,%esp
 8048b43:	e8 68 ff ff ff       	call   8048ab0 <deregister_tm_clones>
 8048b48:	c6 05 0c e1 04 08 01 	movb   $0x1,0x804e10c
 8048b4f:	c9                   	leave  
 8048b50:	c3                   	ret    
 8048b51:	8d b4 26 00 00 00 00 	lea    0x0(%esi,%eiz,1),%esi
 8048b58:	c3                   	ret    
 8048b59:	8d b4 26 00 00 00 00 	lea    0x0(%esi,%eiz,1),%esi

08048b60 <frame_dummy>:
 8048b60:	f3 0f 1e fb          	endbr32 
 8048b64:	eb 8a                	jmp    8048af0 <register_tm_clones>

08048b66 <smoke>:
 8048b66:	55                   	push   %ebp
 8048b67:	89 e5                	mov    %esp,%ebp
 8048b69:	83 ec 08             	sub    $0x8,%esp
 8048b6c:	83 ec 0c             	sub    $0xc,%esp
 8048b6f:	68 04 a3 04 08       	push   $0x804a304
 8048b74:	e8 77 fd ff ff       	call   80488f0 <puts@plt>
 8048b79:	83 c4 10             	add    $0x10,%esp
 8048b7c:	83 ec 0c             	sub    $0xc,%esp
 8048b7f:	6a 00                	push   $0x0
 8048b81:	e8 ef 08 00 00       	call   8049475 <validate>
 8048b86:	83 c4 10             	add    $0x10,%esp
 8048b89:	83 ec 0c             	sub    $0xc,%esp
 8048b8c:	6a 00                	push   $0x0
 8048b8e:	e8 7d fd ff ff       	call   8048910 <exit@plt>

08048b93 <fizz>:
 8048b93:	55                   	push   %ebp
 8048b94:	89 e5                	mov    %esp,%ebp
 8048b96:	83 ec 08             	sub    $0x8,%esp
 8048b99:	8b 55 08             	mov    0x8(%ebp),%edx
 8048b9c:	a1 20 e1 04 08       	mov    0x804e120,%eax
 8048ba1:	39 c2                	cmp    %eax,%edx
 8048ba3:	75 22                	jne    8048bc7 <fizz+0x34>
 8048ba5:	83 ec 08             	sub    $0x8,%esp
 8048ba8:	ff 75 08             	pushl  0x8(%ebp)
 8048bab:	68 1f a3 04 08       	push   $0x804a31f
 8048bb0:	e8 7b fc ff ff       	call   8048830 <printf@plt>
 8048bb5:	83 c4 10             	add    $0x10,%esp
 8048bb8:	83 ec 0c             	sub    $0xc,%esp
 8048bbb:	6a 01                	push   $0x1
 8048bbd:	e8 b3 08 00 00       	call   8049475 <validate>
 8048bc2:	83 c4 10             	add    $0x10,%esp
 8048bc5:	eb 13                	jmp    8048bda <fizz+0x47>
 8048bc7:	83 ec 08             	sub    $0x8,%esp
 8048bca:	ff 75 08             	pushl  0x8(%ebp)
 8048bcd:	68 40 a3 04 08       	push   $0x804a340
 8048bd2:	e8 59 fc ff ff       	call   8048830 <printf@plt>
 8048bd7:	83 c4 10             	add    $0x10,%esp
 8048bda:	83 ec 0c             	sub    $0xc,%esp
 8048bdd:	6a 00                	push   $0x0
 8048bdf:	e8 2c fd ff ff       	call   8048910 <exit@plt>

08048be4 <bang>:
 8048be4:	55                   	push   %ebp
 8048be5:	89 e5                	mov    %esp,%ebp
 8048be7:	83 ec 08             	sub    $0x8,%esp
 8048bea:	a1 28 e1 04 08       	mov    0x804e128,%eax
 8048bef:	89 c2                	mov    %eax,%edx
 8048bf1:	a1 20 e1 04 08       	mov    0x804e120,%eax
 8048bf6:	39 c2                	cmp    %eax,%edx
 8048bf8:	75 25                	jne    8048c1f <bang+0x3b>
 8048bfa:	a1 28 e1 04 08       	mov    0x804e128,%eax
 8048bff:	83 ec 08             	sub    $0x8,%esp
 8048c02:	50                   	push   %eax
 8048c03:	68 60 a3 04 08       	push   $0x804a360
 8048c08:	e8 23 fc ff ff       	call   8048830 <printf@plt>
 8048c0d:	83 c4 10             	add    $0x10,%esp
 8048c10:	83 ec 0c             	sub    $0xc,%esp
 8048c13:	6a 02                	push   $0x2
 8048c15:	e8 5b 08 00 00       	call   8049475 <validate>
 8048c1a:	83 c4 10             	add    $0x10,%esp
 8048c1d:	eb 16                	jmp    8048c35 <bang+0x51>
 8048c1f:	a1 28 e1 04 08       	mov    0x804e128,%eax
 8048c24:	83 ec 08             	sub    $0x8,%esp
 8048c27:	50                   	push   %eax
 8048c28:	68 85 a3 04 08       	push   $0x804a385
 8048c2d:	e8 fe fb ff ff       	call   8048830 <printf@plt>
 8048c32:	83 c4 10             	add    $0x10,%esp
 8048c35:	83 ec 0c             	sub    $0xc,%esp
 8048c38:	6a 00                	push   $0x0
 8048c3a:	e8 d1 fc ff ff       	call   8048910 <exit@plt>

08048c3f <test>:
 8048c3f:	55                   	push   %ebp
 8048c40:	89 e5                	mov    %esp,%ebp
 8048c42:	83 ec 18             	sub    $0x18,%esp
 8048c45:	e8 4c 04 00 00       	call   8049096 <uniqueval>
 8048c4a:	89 45 f0             	mov    %eax,-0x10(%ebp)
 8048c4d:	e8 a6 06 00 00       	call   80492f8 <getbuf>
 8048c52:	89 45 f4             	mov    %eax,-0xc(%ebp)
 8048c55:	e8 3c 04 00 00       	call   8049096 <uniqueval>
 8048c5a:	89 c2                	mov    %eax,%edx
 8048c5c:	8b 45 f0             	mov    -0x10(%ebp),%eax
 8048c5f:	39 c2                	cmp    %eax,%edx
 8048c61:	74 12                	je     8048c75 <test+0x36>
 8048c63:	83 ec 0c             	sub    $0xc,%esp
 8048c66:	68 a4 a3 04 08       	push   $0x804a3a4
 8048c6b:	e8 80 fc ff ff       	call   80488f0 <puts@plt>
 8048c70:	83 c4 10             	add    $0x10,%esp
 8048c73:	eb 41                	jmp    8048cb6 <test+0x77>
 8048c75:	8b 55 f4             	mov    -0xc(%ebp),%edx
 8048c78:	a1 20 e1 04 08       	mov    0x804e120,%eax
 8048c7d:	39 c2                	cmp    %eax,%edx
 8048c7f:	75 22                	jne    8048ca3 <test+0x64>
 8048c81:	83 ec 08             	sub    $0x8,%esp
 8048c84:	ff 75 f4             	pushl  -0xc(%ebp)
 8048c87:	68 cd a3 04 08       	push   $0x804a3cd
 8048c8c:	e8 9f fb ff ff       	call   8048830 <printf@plt>
 8048c91:	83 c4 10             	add    $0x10,%esp
 8048c94:	83 ec 0c             	sub    $0xc,%esp
 8048c97:	6a 03                	push   $0x3
 8048c99:	e8 d7 07 00 00       	call   8049475 <validate>
 8048c9e:	83 c4 10             	add    $0x10,%esp
 8048ca1:	eb 13                	jmp    8048cb6 <test+0x77>
 8048ca3:	83 ec 08             	sub    $0x8,%esp
 8048ca6:	ff 75 f4             	pushl  -0xc(%ebp)
 8048ca9:	68 ea a3 04 08       	push   $0x804a3ea
 8048cae:	e8 7d fb ff ff       	call   8048830 <printf@plt>
 8048cb3:	83 c4 10             	add    $0x10,%esp
 8048cb6:	90                   	nop
 8048cb7:	c9                   	leave  
 8048cb8:	c3                   	ret    

08048cb9 <testn>:
 8048cb9:	55                   	push   %ebp
 8048cba:	89 e5                	mov    %esp,%ebp
 8048cbc:	83 ec 18             	sub    $0x18,%esp
 8048cbf:	e8 d2 03 00 00       	call   8049096 <uniqueval>
 8048cc4:	89 45 f0             	mov    %eax,-0x10(%ebp)
 8048cc7:	e8 48 06 00 00       	call   8049314 <getbufn>
 8048ccc:	89 45 f4             	mov    %eax,-0xc(%ebp)
 8048ccf:	e8 c2 03 00 00       	call   8049096 <uniqueval>
 8048cd4:	89 c2                	mov    %eax,%edx
 8048cd6:	8b 45 f0             	mov    -0x10(%ebp),%eax
 8048cd9:	39 c2                	cmp    %eax,%edx
 8048cdb:	74 12                	je     8048cef <testn+0x36>
 8048cdd:	83 ec 0c             	sub    $0xc,%esp
 8048ce0:	68 a4 a3 04 08       	push   $0x804a3a4
 8048ce5:	e8 06 fc ff ff       	call   80488f0 <puts@plt>
 8048cea:	83 c4 10             	add    $0x10,%esp
 8048ced:	eb 41                	jmp    8048d30 <testn+0x77>
 8048cef:	8b 55 f4             	mov    -0xc(%ebp),%edx
 8048cf2:	a1 20 e1 04 08       	mov    0x804e120,%eax
 8048cf7:	39 c2                	cmp    %eax,%edx
 8048cf9:	75 22                	jne    8048d1d <testn+0x64>
 8048cfb:	83 ec 08             	sub    $0x8,%esp
 8048cfe:	ff 75 f4             	pushl  -0xc(%ebp)
 8048d01:	68 08 a4 04 08       	push   $0x804a408
 8048d06:	e8 25 fb ff ff       	call   8048830 <printf@plt>
 8048d0b:	83 c4 10             	add    $0x10,%esp
 8048d0e:	83 ec 0c             	sub    $0xc,%esp
 8048d11:	6a 04                	push   $0x4
 8048d13:	e8 5d 07 00 00       	call   8049475 <validate>
 8048d18:	83 c4 10             	add    $0x10,%esp
 8048d1b:	eb 13                	jmp    8048d30 <testn+0x77>
 8048d1d:	83 ec 08             	sub    $0x8,%esp
 8048d20:	ff 75 f4             	pushl  -0xc(%ebp)
 8048d23:	68 28 a4 04 08       	push   $0x804a428
 8048d28:	e8 03 fb ff ff       	call   8048830 <printf@plt>
 8048d2d:	83 c4 10             	add    $0x10,%esp
 8048d30:	90                   	nop
 8048d31:	c9                   	leave  
 8048d32:	c3                   	ret    

08048d33 <save_char>:
 8048d33:	55                   	push   %ebp
 8048d34:	89 e5                	mov    %esp,%ebp
 8048d36:	83 ec 04             	sub    $0x4,%esp
 8048d39:	8b 45 08             	mov    0x8(%ebp),%eax
 8048d3c:	88 45 fc             	mov    %al,-0x4(%ebp)
 8048d3f:	a1 2c e1 04 08       	mov    0x804e12c,%eax
 8048d44:	3d ff 03 00 00       	cmp    $0x3ff,%eax
 8048d49:	7f 70                	jg     8048dbb <save_char+0x88>
 8048d4b:	0f b6 45 fc          	movzbl -0x4(%ebp),%eax
 8048d4f:	c0 f8 04             	sar    $0x4,%al
 8048d52:	0f be c0             	movsbl %al,%eax
 8048d55:	83 e0 0f             	and    $0xf,%eax
 8048d58:	89 c1                	mov    %eax,%ecx
 8048d5a:	8b 15 2c e1 04 08    	mov    0x804e12c,%edx
 8048d60:	89 d0                	mov    %edx,%eax
 8048d62:	01 c0                	add    %eax,%eax
 8048d64:	01 c2                	add    %eax,%edx
 8048d66:	0f b6 81 a4 d0 04 08 	movzbl 0x804d0a4(%ecx),%eax
 8048d6d:	88 82 60 e1 04 08    	mov    %al,0x804e160(%edx)
 8048d73:	0f be 45 fc          	movsbl -0x4(%ebp),%eax
 8048d77:	83 e0 0f             	and    $0xf,%eax
 8048d7a:	89 c1                	mov    %eax,%ecx
 8048d7c:	8b 15 2c e1 04 08    	mov    0x804e12c,%edx
 8048d82:	89 d0                	mov    %edx,%eax
 8048d84:	01 c0                	add    %eax,%eax
 8048d86:	01 d0                	add    %edx,%eax
 8048d88:	8d 50 01             	lea    0x1(%eax),%edx
 8048d8b:	0f b6 81 a4 d0 04 08 	movzbl 0x804d0a4(%ecx),%eax
 8048d92:	88 82 60 e1 04 08    	mov    %al,0x804e160(%edx)
 8048d98:	8b 15 2c e1 04 08    	mov    0x804e12c,%edx
 8048d9e:	89 d0                	mov    %edx,%eax
 8048da0:	01 c0                	add    %eax,%eax
 8048da2:	01 d0                	add    %edx,%eax
 8048da4:	83 c0 02             	add    $0x2,%eax
 8048da7:	c6 80 60 e1 04 08 20 	movb   $0x20,0x804e160(%eax)
 8048dae:	a1 2c e1 04 08       	mov    0x804e12c,%eax
 8048db3:	83 c0 01             	add    $0x1,%eax
 8048db6:	a3 2c e1 04 08       	mov    %eax,0x804e12c
 8048dbb:	90                   	nop
 8048dbc:	c9                   	leave  
 8048dbd:	c3                   	ret    

08048dbe <save_term>:
 8048dbe:	55                   	push   %ebp
 8048dbf:	89 e5                	mov    %esp,%ebp
 8048dc1:	8b 15 2c e1 04 08    	mov    0x804e12c,%edx
 8048dc7:	89 d0                	mov    %edx,%eax
 8048dc9:	01 c0                	add    %eax,%eax
 8048dcb:	01 d0                	add    %edx,%eax
 8048dcd:	c6 80 60 e1 04 08 00 	movb   $0x0,0x804e160(%eax)
 8048dd4:	90                   	nop
 8048dd5:	5d                   	pop    %ebp
 8048dd6:	c3                   	ret    

08048dd7 <Gets>:
 8048dd7:	55                   	push   %ebp
 8048dd8:	89 e5                	mov    %esp,%ebp
 8048dda:	83 ec 18             	sub    $0x18,%esp
 8048ddd:	8b 45 08             	mov    0x8(%ebp),%eax
 8048de0:	89 45 f4             	mov    %eax,-0xc(%ebp)
 8048de3:	c7 05 2c e1 04 08 00 	movl   $0x0,0x804e12c
 8048dea:	00 00 00 
 8048ded:	eb 1d                	jmp    8048e0c <Gets+0x35>
 8048def:	8b 45 f4             	mov    -0xc(%ebp),%eax
 8048df2:	8d 50 01             	lea    0x1(%eax),%edx
 8048df5:	89 55 f4             	mov    %edx,-0xc(%ebp)
 8048df8:	8b 55 f0             	mov    -0x10(%ebp),%edx
 8048dfb:	88 10                	mov    %dl,(%eax)
 8048dfd:	8b 45 f0             	mov    -0x10(%ebp),%eax
 8048e00:	0f be c0             	movsbl %al,%eax
 8048e03:	50                   	push   %eax
 8048e04:	e8 2a ff ff ff       	call   8048d33 <save_char>
 8048e09:	83 c4 04             	add    $0x4,%esp
 8048e0c:	a1 1c e1 04 08       	mov    0x804e11c,%eax
 8048e11:	83 ec 0c             	sub    $0xc,%esp
 8048e14:	50                   	push   %eax
 8048e15:	e8 76 fa ff ff       	call   8048890 <_IO_getc@plt>
 8048e1a:	83 c4 10             	add    $0x10,%esp
 8048e1d:	89 45 f0             	mov    %eax,-0x10(%ebp)
 8048e20:	83 7d f0 ff          	cmpl   $0xffffffff,-0x10(%ebp)
 8048e24:	74 06                	je     8048e2c <Gets+0x55>
 8048e26:	83 7d f0 0a          	cmpl   $0xa,-0x10(%ebp)
 8048e2a:	75 c3                	jne    8048def <Gets+0x18>
 8048e2c:	8b 45 f4             	mov    -0xc(%ebp),%eax
 8048e2f:	8d 50 01             	lea    0x1(%eax),%edx
 8048e32:	89 55 f4             	mov    %edx,-0xc(%ebp)
 8048e35:	c6 00 00             	movb   $0x0,(%eax)
 8048e38:	e8 81 ff ff ff       	call   8048dbe <save_term>
 8048e3d:	8b 45 08             	mov    0x8(%ebp),%eax
 8048e40:	c9                   	leave  
 8048e41:	c3                   	ret    

08048e42 <usage>:
 8048e42:	55                   	push   %ebp
 8048e43:	89 e5                	mov    %esp,%ebp
 8048e45:	83 ec 08             	sub    $0x8,%esp
 8048e48:	83 ec 08             	sub    $0x8,%esp
 8048e4b:	ff 75 08             	pushl  0x8(%ebp)
 8048e4e:	68 44 a4 04 08       	push   $0x804a444
 8048e53:	e8 d8 f9 ff ff       	call   8048830 <printf@plt>
 8048e58:	83 c4 10             	add    $0x10,%esp
 8048e5b:	83 ec 0c             	sub    $0xc,%esp
 8048e5e:	68 62 a4 04 08       	push   $0x804a462
 8048e63:	e8 88 fa ff ff       	call   80488f0 <puts@plt>
 8048e68:	83 c4 10             	add    $0x10,%esp
 8048e6b:	83 ec 0c             	sub    $0xc,%esp
 8048e6e:	68 78 a4 04 08       	push   $0x804a478
 8048e73:	e8 78 fa ff ff       	call   80488f0 <puts@plt>
 8048e78:	83 c4 10             	add    $0x10,%esp
 8048e7b:	83 ec 0c             	sub    $0xc,%esp
 8048e7e:	68 94 a4 04 08       	push   $0x804a494
 8048e83:	e8 68 fa ff ff       	call   80488f0 <puts@plt>
 8048e88:	83 c4 10             	add    $0x10,%esp
 8048e8b:	83 ec 0c             	sub    $0xc,%esp
 8048e8e:	68 d0 a4 04 08       	push   $0x804a4d0
 8048e93:	e8 58 fa ff ff       	call   80488f0 <puts@plt>
 8048e98:	83 c4 10             	add    $0x10,%esp
 8048e9b:	83 ec 0c             	sub    $0xc,%esp
 8048e9e:	6a 00                	push   $0x0
 8048ea0:	e8 6b fa ff ff       	call   8048910 <exit@plt>

08048ea5 <bushandler>:
 8048ea5:	55                   	push   %ebp
 8048ea6:	89 e5                	mov    %esp,%ebp
 8048ea8:	83 ec 08             	sub    $0x8,%esp
 8048eab:	83 ec 0c             	sub    $0xc,%esp
 8048eae:	68 f8 a4 04 08       	push   $0x804a4f8
 8048eb3:	e8 38 fa ff ff       	call   80488f0 <puts@plt>
 8048eb8:	83 c4 10             	add    $0x10,%esp
 8048ebb:	83 ec 0c             	sub    $0xc,%esp
 8048ebe:	68 18 a5 04 08       	push   $0x804a518
 8048ec3:	e8 28 fa ff ff       	call   80488f0 <puts@plt>
 8048ec8:	83 c4 10             	add    $0x10,%esp
 8048ecb:	83 ec 0c             	sub    $0xc,%esp
 8048ece:	6a 00                	push   $0x0
 8048ed0:	e8 3b fa ff ff       	call   8048910 <exit@plt>

08048ed5 <seghandler>:
 8048ed5:	55                   	push   %ebp
 8048ed6:	89 e5                	mov    %esp,%ebp
 8048ed8:	83 ec 08             	sub    $0x8,%esp
 8048edb:	83 ec 0c             	sub    $0xc,%esp
 8048ede:	68 30 a5 04 08       	push   $0x804a530
 8048ee3:	e8 08 fa ff ff       	call   80488f0 <puts@plt>
 8048ee8:	83 c4 10             	add    $0x10,%esp
 8048eeb:	83 ec 0c             	sub    $0xc,%esp
 8048eee:	68 18 a5 04 08       	push   $0x804a518
 8048ef3:	e8 f8 f9 ff ff       	call   80488f0 <puts@plt>
 8048ef8:	83 c4 10             	add    $0x10,%esp
 8048efb:	83 ec 0c             	sub    $0xc,%esp
 8048efe:	6a 00                	push   $0x0
 8048f00:	e8 0b fa ff ff       	call   8048910 <exit@plt>

08048f05 <illegalhandler>:
 8048f05:	55                   	push   %ebp
 8048f06:	89 e5                	mov    %esp,%ebp
 8048f08:	83 ec 08             	sub    $0x8,%esp
 8048f0b:	83 ec 0c             	sub    $0xc,%esp
 8048f0e:	68 58 a5 04 08       	push   $0x804a558
 8048f13:	e8 d8 f9 ff ff       	call   80488f0 <puts@plt>
 8048f18:	83 c4 10             	add    $0x10,%esp
 8048f1b:	83 ec 0c             	sub    $0xc,%esp
 8048f1e:	68 18 a5 04 08       	push   $0x804a518
 8048f23:	e8 c8 f9 ff ff       	call   80488f0 <puts@plt>
 8048f28:	83 c4 10             	add    $0x10,%esp
 8048f2b:	83 ec 0c             	sub    $0xc,%esp
 8048f2e:	6a 00                	push   $0x0
 8048f30:	e8 db f9 ff ff       	call   8048910 <exit@plt>

08048f35 <launch>:
 8048f35:	55                   	push   %ebp
 8048f36:	89 e5                	mov    %esp,%ebp
 8048f38:	83 ec 58             	sub    $0x58,%esp
 8048f3b:	c7 45 f4 00 00 00 00 	movl   $0x0,-0xc(%ebp)
 8048f42:	8d 45 b0             	lea    -0x50(%ebp),%eax
 8048f45:	25 f0 3f 00 00       	and    $0x3ff0,%eax
 8048f4a:	89 45 f4             	mov    %eax,-0xc(%ebp)
 8048f4d:	8b 55 0c             	mov    0xc(%ebp),%edx
 8048f50:	8b 45 f4             	mov    -0xc(%ebp),%eax
 8048f53:	01 d0                	add    %edx,%eax
 8048f55:	8d 50 0c             	lea    0xc(%eax),%edx
 8048f58:	b8 10 00 00 00       	mov    $0x10,%eax
 8048f5d:	83 e8 01             	sub    $0x1,%eax
 8048f60:	01 d0                	add    %edx,%eax
 8048f62:	b9 10 00 00 00       	mov    $0x10,%ecx
 8048f67:	ba 00 00 00 00       	mov    $0x0,%edx
 8048f6c:	f7 f1                	div    %ecx
 8048f6e:	6b c0 10             	imul   $0x10,%eax,%eax
 8048f71:	29 c4                	sub    %eax,%esp
 8048f73:	89 e0                	mov    %esp,%eax
 8048f75:	83 c0 0f             	add    $0xf,%eax
 8048f78:	c1 e8 04             	shr    $0x4,%eax
 8048f7b:	c1 e0 04             	shl    $0x4,%eax
 8048f7e:	89 45 f0             	mov    %eax,-0x10(%ebp)
 8048f81:	83 ec 04             	sub    $0x4,%esp
 8048f84:	ff 75 f4             	pushl  -0xc(%ebp)
 8048f87:	68 f4 00 00 00       	push   $0xf4
 8048f8c:	ff 75 f0             	pushl  -0x10(%ebp)
 8048f8f:	e8 0c fa ff ff       	call   80489a0 <memset@plt>
 8048f94:	83 c4 10             	add    $0x10,%esp
 8048f97:	83 ec 0c             	sub    $0xc,%esp
 8048f9a:	68 83 a5 04 08       	push   $0x804a583
 8048f9f:	e8 8c f8 ff ff       	call   8048830 <printf@plt>
 8048fa4:	83 c4 10             	add    $0x10,%esp
 8048fa7:	83 7d 08 00          	cmpl   $0x0,0x8(%ebp)
 8048fab:	74 07                	je     8048fb4 <launch+0x7f>
 8048fad:	e8 07 fd ff ff       	call   8048cb9 <testn>
 8048fb2:	eb 05                	jmp    8048fb9 <launch+0x84>
 8048fb4:	e8 86 fc ff ff       	call   8048c3f <test>
 8048fb9:	a1 24 e1 04 08       	mov    0x804e124,%eax
 8048fbe:	85 c0                	test   %eax,%eax
 8048fc0:	75 1a                	jne    8048fdc <launch+0xa7>
 8048fc2:	83 ec 0c             	sub    $0xc,%esp
 8048fc5:	68 18 a5 04 08       	push   $0x804a518
 8048fca:	e8 21 f9 ff ff       	call   80488f0 <puts@plt>
 8048fcf:	83 c4 10             	add    $0x10,%esp
 8048fd2:	c7 05 24 e1 04 08 00 	movl   $0x0,0x804e124
 8048fd9:	00 00 00 
 8048fdc:	90                   	nop
 8048fdd:	c9                   	leave  
 8048fde:	c3                   	ret    

08048fdf <launcher>:
 8048fdf:	55                   	push   %ebp
 8048fe0:	89 e5                	mov    %esp,%ebp
 8048fe2:	83 ec 18             	sub    $0x18,%esp
 8048fe5:	8b 45 08             	mov    0x8(%ebp),%eax
 8048fe8:	a3 30 e1 04 08       	mov    %eax,0x804e130
 8048fed:	8b 45 0c             	mov    0xc(%ebp),%eax
 8048ff0:	a3 34 e1 04 08       	mov    %eax,0x804e134
 8048ff5:	83 ec 08             	sub    $0x8,%esp
 8048ff8:	6a 00                	push   $0x0
 8048ffa:	6a 00                	push   $0x0
 8048ffc:	68 32 01 00 00       	push   $0x132
 8049001:	6a 07                	push   $0x7
 8049003:	68 00 00 10 00       	push   $0x100000
 8049008:	68 00 60 58 55       	push   $0x55586000
 804900d:	e8 1e f9 ff ff       	call   8048930 <mmap@plt>
 8049012:	83 c4 20             	add    $0x20,%esp
 8049015:	89 45 f4             	mov    %eax,-0xc(%ebp)
 8049018:	81 7d f4 00 60 58 55 	cmpl   $0x55586000,-0xc(%ebp)
 804901f:	74 21                	je     8049042 <launcher+0x63>
 8049021:	a1 e0 e0 04 08       	mov    0x804e0e0,%eax
 8049026:	50                   	push   %eax
 8049027:	6a 47                	push   $0x47
 8049029:	6a 01                	push   $0x1
 804902b:	68 90 a5 04 08       	push   $0x804a590
 8049030:	e8 7b f8 ff ff       	call   80488b0 <fwrite@plt>
 8049035:	83 c4 10             	add    $0x10,%esp
 8049038:	83 ec 0c             	sub    $0xc,%esp
 804903b:	6a 01                	push   $0x1
 804903d:	e8 ce f8 ff ff       	call   8048910 <exit@plt>
 8049042:	8b 45 f4             	mov    -0xc(%ebp),%eax
 8049045:	05 f8 ff 0f 00       	add    $0xffff8,%eax
 804904a:	a3 40 e1 04 08       	mov    %eax,0x804e140
 804904f:	8b 15 40 e1 04 08    	mov    0x804e140,%edx
 8049055:	89 e0                	mov    %esp,%eax
 8049057:	89 d4                	mov    %edx,%esp
 8049059:	89 c2                	mov    %eax,%edx
 804905b:	89 15 38 e1 04 08    	mov    %edx,0x804e138
 8049061:	8b 15 34 e1 04 08    	mov    0x804e134,%edx
 8049067:	a1 30 e1 04 08       	mov    0x804e130,%eax
 804906c:	83 ec 08             	sub    $0x8,%esp
 804906f:	52                   	push   %edx
 8049070:	50                   	push   %eax
 8049071:	e8 bf fe ff ff       	call   8048f35 <launch>
 8049076:	83 c4 10             	add    $0x10,%esp
 8049079:	a1 38 e1 04 08       	mov    0x804e138,%eax
 804907e:	89 c4                	mov    %eax,%esp
 8049080:	83 ec 08             	sub    $0x8,%esp
 8049083:	68 00 00 10 00       	push   $0x100000
 8049088:	ff 75 f4             	pushl  -0xc(%ebp)
 804908b:	e8 40 f9 ff ff       	call   80489d0 <munmap@plt>
 8049090:	83 c4 10             	add    $0x10,%esp
 8049093:	90                   	nop
 8049094:	c9                   	leave  
 8049095:	c3                   	ret    

08049096 <uniqueval>:
 8049096:	55                   	push   %ebp
 8049097:	89 e5                	mov    %esp,%ebp
 8049099:	83 ec 08             	sub    $0x8,%esp
 804909c:	e8 2f f8 ff ff       	call   80488d0 <getpid@plt>
 80490a1:	83 ec 0c             	sub    $0xc,%esp
 80490a4:	50                   	push   %eax
 80490a5:	e8 76 f7 ff ff       	call   8048820 <srandom@plt>
 80490aa:	83 c4 10             	add    $0x10,%esp
 80490ad:	e8 4e f9 ff ff       	call   8048a00 <random@plt>
 80490b2:	c9                   	leave  
 80490b3:	c3                   	ret    

080490b4 <main>:
 80490b4:	8d 4c 24 04          	lea    0x4(%esp),%ecx
 80490b8:	83 e4 f0             	and    $0xfffffff0,%esp
 80490bb:	ff 71 fc             	pushl  -0x4(%ecx)
 80490be:	55                   	push   %ebp
 80490bf:	89 e5                	mov    %esp,%ebp
 80490c1:	53                   	push   %ebx
 80490c2:	51                   	push   %ecx
 80490c3:	83 ec 20             	sub    $0x20,%esp
 80490c6:	89 cb                	mov    %ecx,%ebx
 80490c8:	c7 45 e8 00 00 00 00 	movl   $0x0,-0x18(%ebp)
 80490cf:	c7 45 f4 00 00 00 00 	movl   $0x0,-0xc(%ebp)
 80490d6:	c7 45 ec 01 00 00 00 	movl   $0x1,-0x14(%ebp)
 0490dd:	83 ec 08             	sub    $0x8,%esp
 80490e0:	68 d5 8e 04 08       	push   $0x8048ed5
 80490e5:	6a 0b                	push   $0xb
 80490e7:	e8 84 f7 ff ff       	call   8048870 <signal@plt>
 80490ec:	83 c4 10             	add    $0x10,%esp
 80490ef:	83 ec 08             	sub    $0x8,%esp
 80490f2:	68 a5 8e 04 08       	push   $0x8048ea5
 80490f7:	6a 07                	push   $0x7
 80490f9:	e8 72 f7 ff ff       	call   8048870 <signal@plt>
 80490fe:	83 c4 10             	add    $0x10,%esp
 8049101:	83 ec 08             	sub    $0x8,%esp
 8049104:	68 05 8f 04 08       	push   $0x8048f05
 8049109:	6a 04                	push   $0x4
 804910b:	e8 60 f7 ff ff       	call   8048870 <signal@plt>
 8049110:	83 c4 10             	add    $0x10,%esp
 8049113:	a1 00 e1 04 08       	mov    0x804e100,%eax
 8049118:	a3 1c e1 04 08       	mov    %eax,0x804e11c
 804911d:	e9 8f 00 00 00       	jmp    80491b1 <main+0xfd>
 8049122:	0f be 45 e7          	movsbl -0x19(%ebp),%eax
 8049126:	83 e8 67             	sub    $0x67,%eax
 8049129:	83 f8 0e             	cmp    $0xe,%eax
 804912c:	77 72                	ja     80491a0 <main+0xec>
 804912e:	8b 04 85 28 a6 04 08 	mov    0x804a628(,%eax,4),%eax
 8049135:	ff e0                	jmp    *%eax
 8049137:	8b 43 04             	mov    0x4(%ebx),%eax
 804913a:	8b 00                	mov    (%eax),%eax
 804913c:	83 ec 0c             	sub    $0xc,%esp
 804913f:	50                   	push   %eax
 8049140:	e8 fd fc ff ff       	call   8048e42 <usage>
 8049145:	83 c4 10             	add    $0x10,%esp
 8049148:	eb 67                	jmp    80491b1 <main+0xfd>
 804914a:	c7 45 f4 01 00 00 00 	movl   $0x1,-0xc(%ebp)
 8049151:	c7 45 ec 05 00 00 00 	movl   $0x5,-0x14(%ebp)
 8049158:	eb 57                	jmp    80491b1 <main+0xfd>
 804915a:	a1 08 e1 04 08       	mov    0x804e108,%eax
 804915f:	83 ec 0c             	sub    $0xc,%esp
 8049162:	50                   	push   %eax
 8049163:	e8 e8 f6 ff ff       	call   8048850 <strdup@plt>
 8049168:	83 c4 10             	add    $0x10,%esp
 804916b:	a3 10 e1 04 08       	mov    %eax,0x804e110
 8049170:	a1 10 e1 04 08       	mov    0x804e110,%eax
 8049175:	83 ec 0c             	sub    $0xc,%esp
 8049178:	50                   	push   %eax
 8049179:	e8 c3 10 00 00       	call   804a241 <gencookie>
 804917e:	83 c4 10             	add    $0x10,%esp
 8049181:	a3 20 e1 04 08       	mov    %eax,0x804e120
 8049186:	eb 29                	jmp    80491b1 <main+0xfd>
 8049188:	c7 05 14 e1 04 08 01 	movl   $0x1,0x804e114
 804918f:	00 00 00 
 8049192:	eb 1d                	jmp    80491b1 <main+0xfd>
 8049194:	c7 05 18 e1 04 08 01 	movl   $0x1,0x804e118
 804919b:	00 00 00 
 804919e:	eb 11                	jmp    80491b1 <main+0xfd>
 80491a0:	8b 43 04             	mov    0x4(%ebx),%eax
 80491a3:	8b 00                	mov    (%eax),%eax
 80491a5:	83 ec 0c             	sub    $0xc,%esp
 80491a8:	50                   	push   %eax
 80491a9:	e8 94 fc ff ff       	call   8048e42 <usage>
 80491ae:	83 c4 10             	add    $0x10,%esp
 80491b1:	83 ec 04             	sub    $0x4,%esp
 80491b4:	68 d8 a5 04 08       	push   $0x804a5d8
 80491b9:	ff 73 04             	pushl  0x4(%ebx)
 80491bc:	ff 33                	pushl  (%ebx)
 80491be:	e8 ad f7 ff ff       	call   8048970 <getopt@plt>
 80491c3:	83 c4 10             	add    $0x10,%esp
 80491c6:	88 45 e7             	mov    %al,-0x19(%ebp)
 80491c9:	80 7d e7 ff          	cmpb   $0xff,-0x19(%ebp)
 80491cd:	0f 85 4f ff ff ff    	jne    8049122 <main+0x6e>
 80491d3:	a1 10 e1 04 08       	mov    0x804e110,%eax
 80491d8:	85 c0                	test   %eax,%eax
 80491da:	75 27                	jne    8049203 <main+0x14f>
 80491dc:	8b 43 04             	mov    0x4(%ebx),%eax
 80491df:	8b 00                	mov    (%eax),%eax
 80491e1:	83 ec 08             	sub    $0x8,%esp
 80491e4:	50                   	push   %eax
 80491e5:	68 e0 a5 04 08       	push   $0x804a5e0
 80491ea:	e8 41 f6 ff ff       	call   8048830 <printf@plt>
 80491ef:	83 c4 10             	add    $0x10,%esp
 80491f2:	8b 43 04             	mov    0x4(%ebx),%eax
 80491f5:	8b 00                	mov    (%eax),%eax
 80491f7:	83 ec 0c             	sub    $0xc,%esp
 80491fa:	50                   	push   %eax
 80491fb:	e8 42 fc ff ff       	call   8048e42 <usage>
 8049200:	83 c4 10             	add    $0x10,%esp
 8049203:	e8 2e 01 00 00       	call   8049336 <initialize_bomb>
 8049208:	a1 10 e1 04 08       	mov    0x804e110,%eax
 804920d:	83 ec 08             	sub    $0x8,%esp
 8049210:	50                   	push   %eax
 8049211:	68 0c a6 04 08       	push   $0x804a60c
 8049216:	e8 15 f6 ff ff       	call   8048830 <printf@plt>
 804921b:	83 c4 10             	add    $0x10,%esp
 804921e:	a1 20 e1 04 08       	mov    0x804e120,%eax
 8049223:	83 ec 08             	sub    $0x8,%esp
 8049226:	50                   	push   %eax
 8049227:	68 18 a6 04 08       	push   $0x804a618
 804922c:	e8 ff f5 ff ff       	call   8048830 <printf@plt>
 8049231:	83 c4 10             	add    $0x10,%esp
 8049234:	a1 20 e1 04 08       	mov    0x804e120,%eax
 8049239:	83 ec 0c             	sub    $0xc,%esp
 804923c:	50                   	push   %eax
 804923d:	e8 de f5 ff ff       	call   8048820 <srandom@plt>
 8049242:	83 c4 10             	add    $0x10,%esp
 8049245:	e8 b6 f7 ff ff       	call   8048a00 <random@plt>
 804924a:	25 f0 0f 00 00       	and    $0xff0,%eax
 804924f:	05 00 01 00 00       	add    $0x100,%eax
 8049254:	89 45 e8             	mov    %eax,-0x18(%ebp)
 8049257:	8b 45 ec             	mov    -0x14(%ebp),%eax
 804925a:	83 ec 08             	sub    $0x8,%esp
 804925d:	6a 04                	push   $0x4
 804925f:	50                   	push   %eax
 8049260:	e8 db f7 ff ff       	call   8048a40 <calloc@plt>
 8049265:	83 c4 10             	add    $0x10,%esp
 8049268:	89 45 e0             	mov    %eax,-0x20(%ebp)
 804926b:	8b 45 e0             	mov    -0x20(%ebp),%eax
 804926e:	c7 00 00 00 00 00    	movl   $0x0,(%eax)
 8049274:	c7 45 f0 01 00 00 00 	movl   $0x1,-0x10(%ebp)
 804927b:	eb 2a                	jmp    80492a7 <main+0x1f3>
 804927d:	e8 7e f7 ff ff       	call   8048a00 <random@plt>
 8049282:	25 f0 00 00 00       	and    $0xf0,%eax
 8049287:	89 c2                	mov    %eax,%edx
 8049289:	8b 45 f0             	mov    -0x10(%ebp),%eax
 804928c:	8d 0c 85 00 00 00 00 	lea    0x0(,%eax,4),%ecx
 8049293:	8b 45 e0             	mov    -0x20(%ebp),%eax
 8049296:	01 c8                	add    %ecx,%eax
 8049298:	b9 80 00 00 00       	mov    $0x80,%ecx
 804929d:	29 d1                	sub    %edx,%ecx
 804929f:	89 ca                	mov    %ecx,%edx
 80492a1:	89 10                	mov    %edx,(%eax)
 80492a3:	83 45 f0 01          	addl   $0x1,-0x10(%ebp)
 80492a7:	8b 45 f0             	mov    -0x10(%ebp),%eax
 80492aa:	3b 45 ec             	cmp    -0x14(%ebp),%eax
 80492ad:	7c ce                	jl     804927d <main+0x1c9>
 80492af:	c7 45 f0 00 00 00 00 	movl   $0x0,-0x10(%ebp)
 80492b6:	eb 29                	jmp    80492e1 <main+0x22d>
 80492b8:	8b 45 f0             	mov    -0x10(%ebp),%eax
 80492bb:	8d 14 85 00 00 00 00 	lea    0x0(,%eax,4),%edx
 80492c2:	8b 45 e0             	mov    -0x20(%ebp),%eax
 80492c5:	01 d0                	add    %edx,%eax
 80492c7:	8b 10                	mov    (%eax),%edx
 80492c9:	8b 45 e8             	mov    -0x18(%ebp),%eax
 80492cc:	01 d0                	add    %edx,%eax
 80492ce:	83 ec 08             	sub    $0x8,%esp
 80492d1:	50                   	push   %eax
 80492d2:	ff 75 f4             	pushl  -0xc(%ebp)
 80492d5:	e8 05 fd ff ff       	call   8048fdf <launcher>
 80492da:	83 c4 10             	add    $0x10,%esp
 80492dd:	83 45 f0 01          	addl   $0x1,-0x10(%ebp)
 80492e1:	8b 45 f0             	mov    -0x10(%ebp),%eax
 80492e4:	3b 45 ec             	cmp    -0x14(%ebp),%eax
 80492e7:	7c cf                	jl     80492b8 <main+0x204>
 80492e9:	b8 00 00 00 00       	mov    $0x0,%eax
 80492ee:	8d 65 f8             	lea    -0x8(%ebp),%esp
 80492f1:	59                   	pop    %ecx
 80492f2:	5b                   	pop    %ebx
 80492f3:	5d                   	pop    %ebp
 80492f4:	8d 61 fc             	lea    -0x4(%ecx),%esp
 80492f7:	c3                   	ret    

080492f8 <getbuf>:
 80492f8:	55                   	push   %ebp
 80492f9:	89 e5                	mov    %esp,%ebp
 80492fb:	83 ec 28             	sub    $0x28,%esp
 80492fe:	83 ec 0c             	sub    $0xc,%esp
 8049301:	8d 45 d8             	lea    -0x28(%ebp),%eax
 8049304:	50                   	push   %eax
 8049305:	e8 cd fa ff ff       	call   8048dd7 <Gets>
 804930a:	83 c4 10             	add    $0x10,%esp
 804930d:	b8 01 00 00 00       	mov    $0x1,%eax
 8049312:	c9                   	leave  
 8049313:	c3                   	ret    

08049314 <getbufn>:
 8049314:	55                   	push   %ebp
 8049315:	89 e5                	mov    %esp,%ebp
 8049317:	81 ec 08 02 00 00    	sub    $0x208,%esp
 804931d:	83 ec 0c             	sub    $0xc,%esp
 8049320:	8d 85 f8 fd ff ff    	lea    -0x208(%ebp),%eax
 8049326:	50                   	push   %eax
 8049327:	e8 ab fa ff ff       	call   8048dd7 <Gets>
 804932c:	83 c4 10             	add    $0x10,%esp
 804932f:	b8 01 00 00 00       	mov    $0x1,%eax
 8049334:	c9                   	leave  
 8049335:	c3                   	ret    

08049336 <initialize_bomb>:
 8049336:	55                   	push   %ebp
 8049337:	89 e5                	mov    %esp,%ebp
 8049339:	81 ec 18 24 00 00    	sub    $0x2418,%esp
 804933f:	c7 45 f0 00 00 00 00 	movl   $0x0,-0x10(%ebp)
 8049346:	a1 18 e1 04 08       	mov    0x804e118,%eax
 804934b:	85 c0                	test   %eax,%eax
 804934d:	74 0d                	je     804935c <initialize_bomb+0x26>
 804934f:	83 ec 0c             	sub    $0xc,%esp
 8049352:	6a ff                	push   $0xffffffff
 8049354:	e8 ea 0b 00 00       	call   8049f43 <init_timeout>
 8049359:	83 c4 10             	add    $0x10,%esp
 804935c:	a1 14 e1 04 08       	mov    0x804e114,%eax
 8049361:	85 c0                	test   %eax,%eax
 8049363:	0f 84 09 01 00 00    	je     8049472 <initialize_bomb+0x13c>
 8049369:	83 ec 08             	sub    $0x8,%esp
 804936c:	68 00 04 00 00       	push   $0x400
 8049371:	8d 85 f0 fb ff ff    	lea    -0x410(%ebp),%eax
 8049377:	50                   	push   %eax
 8049378:	e8 63 f5 ff ff       	call   80488e0 <gethostname@plt>
 804937d:	83 c4 10             	add    $0x10,%esp
 8049380:	85 c0                	test   %eax,%eax
 8049382:	74 1a                	je     804939e <initialize_bomb+0x68>
 8049384:	83 ec 0c             	sub    $0xc,%esp
 8049387:	68 b4 a6 04 08       	push   $0x804a6b4
 804938c:	e8 5f f5 ff ff       	call   80488f0 <puts@plt>
 8049391:	83 c4 10             	add    $0x10,%esp
 8049394:	83 ec 0c             	sub    $0xc,%esp
 8049397:	6a 08                	push   $0x8
 8049399:	e8 72 f5 ff ff       	call   8048910 <exit@plt>
 804939e:	c7 45 f4 00 00 00 00 	movl   $0x0,-0xc(%ebp)
 80493a5:	eb 2e                	jmp    80493d5 <initialize_bomb+0x9f>
 80493a7:	8b 45 f4             	mov    -0xc(%ebp),%eax
 80493aa:	8b 04 85 c0 d0 04 08 	mov    0x804d0c0(,%eax,4),%eax
 80493b1:	83 ec 08             	sub    $0x8,%esp
 80493b4:	8d 95 f0 fb ff ff    	lea    -0x410(%ebp),%edx
 80493ba:	52                   	push   %edx
 80493bb:	50                   	push   %eax
 80493bc:	e8 bf f5 ff ff       	call   8048980 <strcasecmp@plt>
 80493c1:	83 c4 10             	add    $0x10,%esp
 80493c4:	85 c0                	test   %eax,%eax
 80493c6:	75 09                	jne    80493d1 <initialize_bomb+0x9b>
 80493c8:	c7 45 f0 01 00 00 00 	movl   $0x1,-0x10(%ebp)
 80493cf:	eb 12                	jmp    80493e3 <initialize_bomb+0xad>
 80493d1:	83 45 f4 01          	addl   $0x1,-0xc(%ebp)
 80493d5:	8b 45 f4             	mov    -0xc(%ebp),%eax
 80493d8:	8b 04 85 c0 d0 04 08 	mov    0x804d0c0(,%eax,4),%eax
 80493df:	85 c0                	test   %eax,%eax
 80493e1:	75 c4                	jne    80493a7 <initialize_bomb+0x71>
 80493e3:	83 7d f0 00          	cmpl   $0x0,-0x10(%ebp)
 80493e7:	75 52                	jne    804943b <initialize_bomb+0x105>
 80493e9:	83 ec 08             	sub    $0x8,%esp
 80493ec:	8d 85 f0 fb ff ff    	lea    -0x410(%ebp),%eax
 80493f2:	50                   	push   %eax
 80493f3:	68 ec a6 04 08       	push   $0x804a6ec
 80493f8:	e8 33 f4 ff ff       	call   8048830 <printf@plt>
 80493fd:	83 c4 10             	add    $0x10,%esp
 8049400:	c7 45 f4 00 00 00 00 	movl   $0x0,-0xc(%ebp)
 8049407:	eb 1a                	jmp    8049423 <initialize_bomb+0xed>
 8049409:	8b 45 f4             	mov    -0xc(%ebp),%eax
 804940c:	8b 04 85 c0 d0 04 08 	mov    0x804d0c0(,%eax,4),%eax
 8049413:	83 ec 0c             	sub    $0xc,%esp
 8049416:	50                   	push   %eax
 8049417:	e8 d4 f4 ff ff       	call   80488f0 <puts@plt>
 804941c:	83 c4 10             	add    $0x10,%esp
 804941f:	83 45 f4 01          	addl   $0x1,-0xc(%ebp)
 8049423:	8b 45 f4             	mov    -0xc(%ebp),%eax
 8049426:	8b 04 85 c0 d0 04 08 	mov    0x804d0c0(,%eax,4),%eax
 804942d:	85 c0                	test   %eax,%eax
 804942f:	75 d8                	jne    8049409 <initialize_bomb+0xd3>
 8049431:	83 ec 0c             	sub    $0xc,%esp
 8049434:	6a 08                	push   $0x8
 8049436:	e8 d5 f4 ff ff       	call   8048910 <exit@plt>
 804943b:	83 ec 0c             	sub    $0xc,%esp
 804943e:	8d 85 f0 db ff ff    	lea    -0x2410(%ebp),%eax
 8049444:	50                   	push   %eax
 8049445:	e8 38 0b 00 00       	call   8049f82 <init_driver>
 804944a:	83 c4 10             	add    $0x10,%esp
 804944d:	85 c0                	test   %eax,%eax
 804944f:	79 21                	jns    8049472 <initialize_bomb+0x13c>
 8049451:	83 ec 08             	sub    $0x8,%esp
 8049454:	8d 85 f0 db ff ff    	lea    -0x2410(%ebp),%eax
 804945a:	50                   	push   %eax
 804945b:	68 27 a7 04 08       	push   $0x804a727
 8049460:	e8 cb f3 ff ff       	call   8048830 <printf@plt>
 8049465:	83 c4 10             	add    $0x10,%esp
 8049468:	83 ec 0c             	sub    $0xc,%esp
 804946b:	6a 08                	push   $0x8
 804946d:	e8 9e f4 ff ff       	call   8048910 <exit@plt>
 8049472:	90                   	nop
 8049473:	c9                   	leave  
 8049474:	c3                   	ret    

08049475 <validate>:
 8049475:	55                   	push   %ebp
 8049476:	89 e5                	mov    %esp,%ebp
 8049478:	81 ec 18 40 00 00    	sub    $0x4018,%esp
 804947e:	a1 10 e1 04 08       	mov    0x804e110,%eax
 8049483:	85 c0                	test   %eax,%eax
 8049485:	75 15                	jne    804949c <validate+0x27>
 8049487:	83 ec 0c             	sub    $0xc,%esp
 804948a:	68 3c a7 04 08       	push   $0x804a73c
 804948f:	e8 5c f4 ff ff       	call   80488f0 <puts@plt>
 8049494:	83 c4 10             	add    $0x10,%esp
 8049497:	e9 36 01 00 00       	jmp    80495d2 <validate+0x15d>
 804949c:	83 7d 08 00          	cmpl   $0x0,0x8(%ebp)
 80494a0:	78 06                	js     80494a8 <validate+0x33>
 80494a2:	83 7d 08 04          	cmpl   $0x4,0x8(%ebp)
 80494a6:	7e 15                	jle    80494bd <validate+0x48>
 80494a8:	83 ec 0c             	sub    $0xc,%esp
 80494ab:	68 68 a7 04 08       	push   $0x804a768
 80494b0:	e8 3b f4 ff ff       	call   80488f0 <puts@plt>
 80494b5:	83 c4 10             	add    $0x10,%esp
 80494b8:	e9 15 01 00 00       	jmp    80495d2 <validate+0x15d>
 80494bd:	c7 05 24 e1 04 08 01 	movl   $0x1,0x804e124
 80494c4:	00 00 00 
 80494c7:	8b 45 08             	mov    0x8(%ebp),%eax
 80494ca:	8b 04 85 c0 e0 04 08 	mov    0x804e0c0(,%eax,4),%eax
 80494d1:	8d 50 ff             	lea    -0x1(%eax),%edx
 80494d4:	8b 45 08             	mov    0x8(%ebp),%eax
 80494d7:	89 14 85 c0 e0 04 08 	mov    %edx,0x804e0c0(,%eax,4)
 80494de:	8b 45 08             	mov    0x8(%ebp),%eax
 80494e1:	8b 04 85 c0 e0 04 08 	mov    0x804e0c0(,%eax,4),%eax
 80494e8:	85 c0                	test   %eax,%eax
 80494ea:	7e 15                	jle    8049501 <validate+0x8c>
 80494ec:	83 ec 0c             	sub    $0xc,%esp
 80494ef:	68 8e a7 04 08       	push   $0x804a78e
 80494f4:	e8 f7 f3 ff ff       	call   80488f0 <puts@plt>
 80494f9:	83 c4 10             	add    $0x10,%esp
 80494fc:	e9 d1 00 00 00       	jmp    80495d2 <validate+0x15d>
 8049501:	83 ec 0c             	sub    $0xc,%esp
 8049504:	68 99 a7 04 08       	push   $0x804a799
 8049509:	e8 e2 f3 ff ff       	call   80488f0 <puts@plt>
 804950e:	83 c4 10             	add    $0x10,%esp
 8049511:	a1 14 e1 04 08       	mov    0x804e114,%eax
 8049516:	85 c0                	test   %eax,%eax
 8049518:	0f 84 a4 00 00 00    	je     80495c2 <validate+0x14d>
 804951e:	83 ec 0c             	sub    $0xc,%esp
 8049521:	68 60 e1 04 08       	push   $0x804e160
 8049526:	e8 15 f4 ff ff       	call   8048940 <strlen@plt>
 804952b:	83 c4 10             	add    $0x10,%esp
 804952e:	83 c0 20             	add    $0x20,%eax
 8049531:	3d 00 20 00 00       	cmp    $0x2000,%eax
 8049536:	76 15                	jbe    804954d <validate+0xd8>
 8049538:	83 ec 0c             	sub    $0xc,%esp
 804953b:	68 a0 a7 04 08       	push   $0x804a7a0
 8049540:	e8 ab f3 ff ff       	call   80488f0 <puts@plt>
 8049545:	83 c4 10             	add    $0x10,%esp
 8049548:	e9 85 00 00 00       	jmp    80495d2 <validate+0x15d>
 804954d:	a1 20 e1 04 08       	mov    0x804e120,%eax
 8049552:	83 ec 0c             	sub    $0xc,%esp
 8049555:	68 60 e1 04 08       	push   $0x804e160
 804955a:	50                   	push   %eax
 804955b:	ff 75 08             	pushl  0x8(%ebp)
 804955e:	68 d7 a7 04 08       	push   $0x804a7d7
 8049563:	8d 85 f4 df ff ff    	lea    -0x200c(%ebp),%eax
 8049569:	50                   	push   %eax
 804956a:	e8 71 f4 ff ff       	call   80489e0 <sprintf@plt>
 804956f:	83 c4 20             	add    $0x20,%esp
 8049572:	a1 10 e1 04 08       	mov    0x804e110,%eax
 8049577:	8d 95 f4 bf ff ff    	lea    -0x400c(%ebp),%edx
 804957d:	52                   	push   %edx
 804957e:	6a 00                	push   $0x0
 8049580:	8d 95 f4 df ff ff    	lea    -0x200c(%ebp),%edx
 8049586:	52                   	push   %edx
 8049587:	50                   	push   %eax
 8049588:	e8 a8 0b 00 00       	call   804a135 <driver_post>
 804958d:	83 c4 10             	add    $0x10,%esp
 8049590:	89 45 f4             	mov    %eax,-0xc(%ebp)
 8049593:	83 7d f4 00          	cmpl   $0x0,-0xc(%ebp)
 8049597:	75 12                	jne    80495ab <validate+0x136>
 8049599:	83 ec 0c             	sub    $0xc,%esp
 804959c:	68 e0 a7 04 08       	push   $0x804a7e0
 80495a1:	e8 4a f3 ff ff       	call   80488f0 <puts@plt>
 80495a6:	83 c4 10             	add    $0x10,%esp
 80495a9:	eb 17                	jmp    80495c2 <validate+0x14d>
 80495ab:	83 ec 08             	sub    $0x8,%esp
 80495ae:	8d 85 f4 bf ff ff    	lea    -0x400c(%ebp),%eax
 80495b4:	50                   	push   %eax
 80495b5:	68 10 a8 04 08       	push   $0x804a810
 80495ba:	e8 71 f2 ff ff       	call   8048830 <printf@plt>
 80495bf:	83 c4 10             	add    $0x10,%esp
 80495c2:	83 ec 0c             	sub    $0xc,%esp
 80495c5:	68 4e a8 04 08       	push   $0x804a84e
 80495ca:	e8 21 f3 ff ff       	call   80488f0 <puts@plt>
 80495cf:	83 c4 10             	add    $0x10,%esp
 80495d2:	c9                   	leave  
 80495d3:	c3                   	ret    

080495d4 <sigalrm_handler>:
 80495d4:	55                   	push   %ebp
 80495d5:	89 e5                	mov    %esp,%ebp
 80495d7:	83 ec 08             	sub    $0x8,%esp
 80495da:	83 ec 08             	sub    $0x8,%esp
 80495dd:	6a 02                	push   $0x2
 80495df:	68 58 a8 04 08       	push   $0x804a858
 80495e4:	e8 47 f2 ff ff       	call   8048830 <printf@plt>
 80495e9:	83 c4 10             	add    $0x10,%esp
 80495ec:	83 ec 0c             	sub    $0xc,%esp
 80495ef:	6a 01                	push   $0x1
 80495f1:	e8 1a f3 ff ff       	call   8048910 <exit@plt>

080495f6 <rio_readinitb>:
 80495f6:	55                   	push   %ebp
 80495f7:	89 e5                	mov    %esp,%ebp
 80495f9:	8b 45 08             	mov    0x8(%ebp),%eax
 80495fc:	8b 55 0c             	mov    0xc(%ebp),%edx
 80495ff:	89 10                	mov    %edx,(%eax)
 8049601:	8b 45 08             	mov    0x8(%ebp),%eax
 8049604:	c7 40 04 00 00 00 00 	movl   $0x0,0x4(%eax)
 804960b:	8b 45 08             	mov    0x8(%ebp),%eax
 804960e:	8d 50 0c             	lea    0xc(%eax),%edx
 8049611:	8b 45 08             	mov    0x8(%ebp),%eax
 8049614:	89 50 08             	mov    %edx,0x8(%eax)
 8049617:	90                   	nop
 8049618:	5d                   	pop    %ebp
 8049619:	c3                   	ret    

0804961a <rio_read>:
 804961a:	55                   	push   %ebp
 804961b:	89 e5                	mov    %esp,%ebp
 804961d:	83 ec 18             	sub    $0x18,%esp
 8049620:	eb 5f                	jmp    8049681 <rio_read+0x67>
 8049622:	8b 45 08             	mov    0x8(%ebp),%eax
 8049625:	8d 50 0c             	lea    0xc(%eax),%edx
 8049628:	8b 45 08             	mov    0x8(%ebp),%eax
 804962b:	8b 00                	mov    (%eax),%eax
 804962d:	83 ec 04             	sub    $0x4,%esp
 8049630:	68 00 20 00 00       	push   $0x2000
 8049635:	52                   	push   %edx
 8049636:	50                   	push   %eax
 8049637:	e8 d4 f1 ff ff       	call   8048810 <read@plt>
 804963c:	83 c4 10             	add    $0x10,%esp
 804963f:	89 c2                	mov    %eax,%edx
 8049641:	8b 45 08             	mov    0x8(%ebp),%eax
 8049644:	89 50 04             	mov    %edx,0x4(%eax)
 8049647:	8b 45 08             	mov    0x8(%ebp),%eax
 804964a:	8b 40 04             	mov    0x4(%eax),%eax
 804964d:	85 c0                	test   %eax,%eax
 804964f:	79 13                	jns    8049664 <rio_read+0x4a>
 8049651:	e8 5a f3 ff ff       	call   80489b0 <__errno_location@plt>
 8049656:	8b 00                	mov    (%eax),%eax
 8049658:	83 f8 04             	cmp    $0x4,%eax
 804965b:	74 24                	je     8049681 <rio_read+0x67>
 804965d:	b8 ff ff ff ff       	mov    $0xffffffff,%eax
 8049662:	eb 7f                	jmp    80496e3 <rio_read+0xc9>
 8049664:	8b 45 08             	mov    0x8(%ebp),%eax
 8049667:	8b 40 04             	mov    0x4(%eax),%eax
 804966a:	85 c0                	test   %eax,%eax
 804966c:	75 07                	jne    8049675 <rio_read+0x5b>
 804966e:	b8 00 00 00 00       	mov    $0x0,%eax
 8049673:	eb 6e                	jmp    80496e3 <rio_read+0xc9>
 8049675:	8b 45 08             	mov    0x8(%ebp),%eax
 8049678:	8d 50 0c             	lea    0xc(%eax),%edx
 804967b:	8b 45 08             	mov    0x8(%ebp),%eax
 804967e:	89 50 08             	mov    %edx,0x8(%eax)
 8049681:	8b 45 08             	mov    0x8(%ebp),%eax
 8049684:	8b 40 04             	mov    0x4(%eax),%eax
 8049687:	85 c0                	test   %eax,%eax
 8049689:	7e 97                	jle    8049622 <rio_read+0x8>
 804968b:	8b 45 10             	mov    0x10(%ebp),%eax
 804968e:	89 45 f4             	mov    %eax,-0xc(%ebp)
 8049691:	8b 45 08             	mov    0x8(%ebp),%eax
 8049694:	8b 40 04             	mov    0x4(%eax),%eax
 8049697:	39 45 10             	cmp    %eax,0x10(%ebp)
 804969a:	76 09                	jbe    80496a5 <rio_read+0x8b>
 804969c:	8b 45 08             	mov    0x8(%ebp),%eax
 804969f:	8b 40 04             	mov    0x4(%eax),%eax
 80496a2:	89 45 f4             	mov    %eax,-0xc(%ebp)
 80496a5:	8b 55 f4             	mov    -0xc(%ebp),%edx
 80496a8:	8b 45 08             	mov    0x8(%ebp),%eax
 80496ab:	8b 40 08             	mov    0x8(%eax),%eax
 80496ae:	83 ec 04             	sub    $0x4,%esp
 80496b1:	52                   	push   %edx
 80496b2:	50                   	push   %eax
 80496b3:	ff 75 0c             	pushl  0xc(%ebp)
 80496b6:	e8 a5 f1 ff ff       	call   8048860 <memcpy@plt>
 80496bb:	83 c4 10             	add    $0x10,%esp
 80496be:	8b 45 08             	mov    0x8(%ebp),%eax
 80496c1:	8b 50 08             	mov    0x8(%eax),%edx
 80496c4:	8b 45 f4             	mov    -0xc(%ebp),%eax
 80496c7:	01 c2                	add    %eax,%edx
 80496c9:	8b 45 08             	mov    0x8(%ebp),%eax
 80496cc:	89 50 08             	mov    %edx,0x8(%eax)
 80496cf:	8b 45 08             	mov    0x8(%ebp),%eax
 80496d2:	8b 40 04             	mov    0x4(%eax),%eax
 80496d5:	2b 45 f4             	sub    -0xc(%ebp),%eax
 80496d8:	89 c2                	mov    %eax,%edx
 80496da:	8b 45 08             	mov    0x8(%ebp),%eax
 80496dd:	89 50 04             	mov    %edx,0x4(%eax)
 80496e0:	8b 45 f4             	mov    -0xc(%ebp),%eax
 80496e3:	c9                   	leave  
 80496e4:	c3                   	ret    

080496e5 <rio_readlineb>:
 80496e5:	55                   	push   %ebp
 80496e6:	89 e5                	mov    %esp,%ebp
 80496e8:	83 ec 18             	sub    $0x18,%esp
 80496eb:	8b 45 0c             	mov    0xc(%ebp),%eax
 80496ee:	89 45 f0             	mov    %eax,-0x10(%ebp)
 80496f1:	c7 45 f4 01 00 00 00 	movl   $0x1,-0xc(%ebp)
 80496f8:	eb 54                	jmp    804974e <rio_readlineb+0x69>
 80496fa:	83 ec 04             	sub    $0x4,%esp
 80496fd:	6a 01                	push   $0x1
 80496ff:	8d 45 eb             	lea    -0x15(%ebp),%eax
 8049702:	50                   	push   %eax
 8049703:	ff 75 08             	pushl  0x8(%ebp)
 8049706:	e8 0f ff ff ff       	call   804961a <rio_read>
 804970b:	83 c4 10             	add    $0x10,%esp
 804970e:	89 45 ec             	mov    %eax,-0x14(%ebp)
 8049711:	83 7d ec 01          	cmpl   $0x1,-0x14(%ebp)
 8049715:	75 19                	jne    8049730 <rio_readlineb+0x4b>
 8049717:	8b 45 f0             	mov    -0x10(%ebp),%eax
 804971a:	8d 50 01             	lea    0x1(%eax),%edx
 804971d:	89 55 f0             	mov    %edx,-0x10(%ebp)
 8049720:	0f b6 55 eb          	movzbl -0x15(%ebp),%edx
 8049724:	88 10                	mov    %dl,(%eax)
 8049726:	0f b6 45 eb          	movzbl -0x15(%ebp),%eax
 804972a:	3c 0a                	cmp    $0xa,%al
 804972c:	75 1c                	jne    804974a <rio_readlineb+0x65>
 804972e:	eb 29                	jmp    8049759 <rio_readlineb+0x74>
 8049730:	83 7d ec 00          	cmpl   $0x0,-0x14(%ebp)
 8049734:	75 0d                	jne    8049743 <rio_readlineb+0x5e>
 8049736:	83 7d f4 01          	cmpl   $0x1,-0xc(%ebp)
 804973a:	75 1c                	jne    8049758 <rio_readlineb+0x73>
 804973c:	b8 00 00 00 00       	mov    $0x0,%eax
 8049741:	eb 1f                	jmp    8049762 <rio_readlineb+0x7d>
 8049743:	b8 ff ff ff ff       	mov    $0xffffffff,%eax
 8049748:	eb 18                	jmp    8049762 <rio_readlineb+0x7d>
 804974a:	83 45 f4 01          	addl   $0x1,-0xc(%ebp)
 804974e:	8b 45 f4             	mov    -0xc(%ebp),%eax
 8049751:	39 45 10             	cmp    %eax,0x10(%ebp)
 8049754:	77 a4                	ja     80496fa <rio_readlineb+0x15>
 8049756:	eb 01                	jmp    8049759 <rio_readlineb+0x74>
 8049758:	90                   	nop
 8049759:	8b 45 f0             	mov    -0x10(%ebp),%eax
 804975c:	c6 00 00             	movb   $0x0,(%eax)
 804975f:	8b 45 f4             	mov    -0xc(%ebp),%eax
 8049762:	c9                   	leave  
 8049763:	c3                   	ret    

08049764 <rio_writen>:
 8049764:	55                   	push   %ebp
 8049765:	89 e5                	mov    %esp,%ebp
 8049767:	83 ec 18             	sub    $0x18,%esp
 804976a:	8b 45 10             	mov    0x10(%ebp),%eax
 804976d:	89 45 f4             	mov    %eax,-0xc(%ebp)
 8049770:	8b 45 0c             	mov    0xc(%ebp),%eax
 8049773:	89 45 ec             	mov    %eax,-0x14(%ebp)
 8049776:	eb 45                	jmp    80497bd <rio_writen+0x59>
 8049778:	83 ec 04             	sub    $0x4,%esp
 804977b:	ff 75 f4             	pushl  -0xc(%ebp)
 804977e:	ff 75 ec             	pushl  -0x14(%ebp)
 8049781:	ff 75 08             	pushl  0x8(%ebp)
 8049784:	e8 d7 f1 ff ff       	call   8048960 <write@plt>
 8049789:	83 c4 10             	add    $0x10,%esp
 804978c:	89 45 f0             	mov    %eax,-0x10(%ebp)
 804978f:	83 7d f0 00          	cmpl   $0x0,-0x10(%ebp)
 8049793:	7f 1c                	jg     80497b1 <rio_writen+0x4d>
 8049795:	e8 16 f2 ff ff       	call   80489b0 <__errno_location@plt>
 804979a:	8b 00                	mov    (%eax),%eax
 804979c:	83 f8 04             	cmp    $0x4,%eax
 804979f:	75 09                	jne    80497aa <rio_writen+0x46>
 80497a1:	c7 45 f0 00 00 00 00 	movl   $0x0,-0x10(%ebp)
 80497a8:	eb 07                	jmp    80497b1 <rio_writen+0x4d>
 80497aa:	b8 ff ff ff ff       	mov    $0xffffffff,%eax
 80497af:	eb 15                	jmp    80497c6 <rio_writen+0x62>
 80497b1:	8b 45 f0             	mov    -0x10(%ebp),%eax
 80497b4:	29 45 f4             	sub    %eax,-0xc(%ebp)
 80497b7:	8b 45 f0             	mov    -0x10(%ebp),%eax
 80497ba:	01 45 ec             	add    %eax,-0x14(%ebp)
 80497bd:	83 7d f4 00          	cmpl   $0x0,-0xc(%ebp)
 80497c1:	75 b5                	jne    8049778 <rio_writen+0x14>
 80497c3:	8b 45 10             	mov    0x10(%ebp),%eax
 80497c6:	c9                   	leave  
 80497c7:	c3                   	ret    

080497c8 <urlencode>:
 80497c8:	55                   	push   %ebp
 80497c9:	89 e5                	mov    %esp,%ebp
 80497cb:	83 ec 18             	sub    $0x18,%esp
 80497ce:	83 ec 0c             	sub    $0xc,%esp
 80497d1:	ff 75 08             	pushl  0x8(%ebp)
 80497d4:	e8 67 f1 ff ff       	call   8048940 <strlen@plt>
 80497d9:	83 c4 10             	add    $0x10,%esp
 80497dc:	89 45 f4             	mov    %eax,-0xc(%ebp)
 80497df:	e9 0e 01 00 00       	jmp    80498f2 <urlencode+0x12a>
 80497e4:	8b 45 08             	mov    0x8(%ebp),%eax
 80497e7:	0f b6 00             	movzbl (%eax),%eax
 80497ea:	3c 2a                	cmp    $0x2a,%al
 80497ec:	74 5a                	je     8049848 <urlencode+0x80>
 80497ee:	8b 45 08             	mov    0x8(%ebp),%eax
 80497f1:	0f b6 00             	movzbl (%eax),%eax
 80497f4:	3c 2d                	cmp    $0x2d,%al
 80497f6:	74 50                	je     8049848 <urlencode+0x80>
 80497f8:	8b 45 08             	mov    0x8(%ebp),%eax
 80497fb:	0f b6 00             	movzbl (%eax),%eax
 80497fe:	3c 2e                	cmp    $0x2e,%al
 8049800:	74 46                	je     8049848 <urlencode+0x80>
 8049802:	8b 45 08             	mov    0x8(%ebp),%eax
 8049805:	0f b6 00             	movzbl (%eax),%eax
 8049808:	3c 5f                	cmp    $0x5f,%al
 804980a:	74 3c                	je     8049848 <urlencode+0x80>
 804980c:	8b 45 08             	mov    0x8(%ebp),%eax
 804980f:	0f b6 00             	movzbl (%eax),%eax
 8049812:	3c 2f                	cmp    $0x2f,%al
 8049814:	76 0a                	jbe    8049820 <urlencode+0x58>
 8049816:	8b 45 08             	mov    0x8(%ebp),%eax
 8049819:	0f b6 00             	movzbl (%eax),%eax
 804981c:	3c 39                	cmp    $0x39,%al
 804981e:	76 28                	jbe    8049848 <urlencode+0x80>
 8049820:	8b 45 08             	mov    0x8(%ebp),%eax
 8049823:	0f b6 00             	movzbl (%eax),%eax
 8049826:	3c 40                	cmp    $0x40,%al
 8049828:	76 0a                	jbe    8049834 <urlencode+0x6c>
 804982a:	8b 45 08             	mov    0x8(%ebp),%eax
 804982d:	0f b6 00             	movzbl (%eax),%eax
 8049830:	3c 5a                	cmp    $0x5a,%al
 8049832:	76 14                	jbe    8049848 <urlencode+0x80>
 8049834:	8b 45 08             	mov    0x8(%ebp),%eax
 8049837:	0f b6 00             	movzbl (%eax),%eax
 804983a:	3c 60                	cmp    $0x60,%al
 804983c:	76 20                	jbe    804985e <urlencode+0x96>
 804983e:	8b 45 08             	mov    0x8(%ebp),%eax
 8049841:	0f b6 00             	movzbl (%eax),%eax
 8049844:	3c 7a                	cmp    $0x7a,%al
 8049846:	77 16                	ja     804985e <urlencode+0x96>
 8049848:	8b 45 0c             	mov    0xc(%ebp),%eax
 804984b:	8d 50 01             	lea    0x1(%eax),%edx
 804984e:	89 55 0c             	mov    %edx,0xc(%ebp)
 8049851:	8b 55 08             	mov    0x8(%ebp),%edx
 8049854:	0f b6 12             	movzbl (%edx),%edx
 8049857:	88 10                	mov    %dl,(%eax)
 8049859:	e9 90 00 00 00       	jmp    80498ee <urlencode+0x126>
 804985e:	8b 45 08             	mov    0x8(%ebp),%eax
 8049861:	0f b6 00             	movzbl (%eax),%eax
 8049864:	3c 20                	cmp    $0x20,%al
 8049866:	75 0e                	jne    8049876 <urlencode+0xae>
 8049868:	8b 45 0c             	mov    0xc(%ebp),%eax
 804986b:	8d 50 01             	lea    0x1(%eax),%edx
 804986e:	89 55 0c             	mov    %edx,0xc(%ebp)
 8049871:	c6 00 2b             	movb   $0x2b,(%eax)
 8049874:	eb 78                	jmp    80498ee <urlencode+0x126>
 8049876:	8b 45 08             	mov    0x8(%ebp),%eax
 8049879:	0f b6 00             	movzbl (%eax),%eax
 804987c:	3c 1f                	cmp    $0x1f,%al
 804987e:	76 0a                	jbe    804988a <urlencode+0xc2>
 8049880:	8b 45 08             	mov    0x8(%ebp),%eax
 8049883:	0f b6 00             	movzbl (%eax),%eax
 8049886:	84 c0                	test   %al,%al
 8049888:	79 0a                	jns    8049894 <urlencode+0xcc>
 804988a:	8b 45 08             	mov    0x8(%ebp),%eax
 804988d:	0f b6 00             	movzbl (%eax),%eax
 8049890:	3c 09                	cmp    $0x9,%al
 8049892:	75 53                	jne    80498e7 <urlencode+0x11f>
 8049894:	8b 45 08             	mov    0x8(%ebp),%eax
 8049897:	0f b6 00             	movzbl (%eax),%eax
 804989a:	0f b6 c0             	movzbl %al,%eax
 804989d:	83 ec 04             	sub    $0x4,%esp
 80498a0:	50                   	push   %eax
 80498a1:	68 7c a8 04 08       	push   $0x804a87c
 80498a6:	8d 45 ec             	lea    -0x14(%ebp),%eax
 80498a9:	50                   	push   %eax
 80498aa:	e8 31 f1 ff ff       	call   80489e0 <sprintf@plt>
 80498af:	83 c4 10             	add    $0x10,%esp
 80498b2:	0f b6 4d ec          	movzbl -0x14(%ebp),%ecx
 80498b6:	8b 45 0c             	mov    0xc(%ebp),%eax
 80498b9:	8d 50 01             	lea    0x1(%eax),%edx
 80498bc:	89 55 0c             	mov    %edx,0xc(%ebp)
 80498bf:	89 ca                	mov    %ecx,%edx
 80498c1:	88 10                	mov    %dl,(%eax)
 80498c3:	0f b6 4d ed          	movzbl -0x13(%ebp),%ecx
 80498c7:	8b 45 0c             	mov    0xc(%ebp),%eax
 80498ca:	8d 50 01             	lea    0x1(%eax),%edx
 80498cd:	89 55 0c             	mov    %edx,0xc(%ebp)
 80498d0:	89 ca                	mov    %ecx,%edx
 80498d2:	88 10                	mov    %dl,(%eax)
 80498d4:	0f b6 4d ee          	movzbl -0x12(%ebp),%ecx
 80498d8:	8b 45 0c             	mov    0xc(%ebp),%eax
 80498db:	8d 50 01             	lea    0x1(%eax),%edx
 80498de:	89 55 0c             	mov    %edx,0xc(%ebp)
 80498e1:	89 ca                	mov    %ecx,%edx
 80498e3:	88 10                	mov    %dl,(%eax)
 80498e5:	eb 07                	jmp    80498ee <urlencode+0x126>
 80498e7:	b8 ff ff ff ff       	mov    $0xffffffff,%eax
 80498ec:	eb 1a                	jmp    8049908 <urlencode+0x140>
 80498ee:	83 45 08 01          	addl   $0x1,0x8(%ebp)
 80498f2:	8b 45 f4             	mov    -0xc(%ebp),%eax
 80498f5:	8d 50 ff             	lea    -0x1(%eax),%edx
 80498f8:	89 55 f4             	mov    %edx,-0xc(%ebp)
 80498fb:	85 c0                	test   %eax,%eax
 80498fd:	0f 85 e1 fe ff ff    	jne    80497e4 <urlencode+0x1c>
 8049903:	b8 00 00 00 00       	mov    $0x0,%eax
 8049908:	c9                   	leave  
 8049909:	c3                   	ret    

0804990a <submitr>:
 804990a:	55                   	push   %ebp
 804990b:	89 e5                	mov    %esp,%ebp
 804990d:	57                   	push   %edi
 804990e:	56                   	push   %esi
 804990f:	53                   	push   %ebx
 8049910:	81 ec 3c a0 00 00    	sub    $0xa03c,%esp
 8049916:	c7 85 b8 7f ff ff 00 	movl   $0x0,-0x8048(%ebp)
 804991d:	00 00 00 
 8049920:	83 ec 04             	sub    $0x4,%esp
 8049923:	6a 00                	push   $0x0
 8049925:	6a 01                	push   $0x1
 8049927:	6a 02                	push   $0x2
 8049929:	e8 c2 f0 ff ff       	call   80489f0 <socket@plt>
 804992e:	83 c4 10             	add    $0x10,%esp
 8049931:	89 45 e4             	mov    %eax,-0x1c(%ebp)
 8049934:	83 7d e4 00          	cmpl   $0x0,-0x1c(%ebp)
 8049938:	79 51                	jns    804998b <submitr+0x81>
 804993a:	8b 45 20             	mov    0x20(%ebp),%eax
 804993d:	c7 00 45 72 72 6f    	movl   $0x6f727245,(%eax)
 8049943:	c7 40 04 72 3a 20 43 	movl   $0x43203a72,0x4(%eax)
 804994a:	c7 40 08 6c 69 65 6e 	movl   $0x6e65696c,0x8(%eax)
 8049951:	c7 40 0c 74 20 75 6e 	movl   $0x6e752074,0xc(%eax)
 8049958:	c7 40 10 61 62 6c 65 	movl   $0x656c6261,0x10(%eax)
 804995f:	c7 40 14 20 74 6f 20 	movl   $0x206f7420,0x14(%eax)
 8049966:	c7 40 18 63 72 65 61 	movl   $0x61657263,0x18(%eax)
 804996d:	c7 40 1c 74 65 20 73 	movl   $0x73206574,0x1c(%eax)
 8049974:	c7 40 20 6f 63 6b 65 	movl   $0x656b636f,0x20(%eax)
 804997b:	66 c7 40 24 74 00    	movw   $0x74,0x24(%eax)
 8049981:	b8 ff ff ff ff       	mov    $0xffffffff,%eax
 8049986:	e9 b0 05 00 00       	jmp    8049f3b <submitr+0x631>
 804998b:	83 ec 0c             	sub    $0xc,%esp
 804998e:	ff 75 08             	pushl  0x8(%ebp)
 8049991:	e8 7a f0 ff ff       	call   8048a10 <gethostbyname@plt>
 8049996:	83 c4 10             	add    $0x10,%esp
 8049999:	89 45 e0             	mov    %eax,-0x20(%ebp)
 804999c:	83 7d e0 00          	cmpl   $0x0,-0x20(%ebp)
 80499a0:	75 2e                	jne    80499d0 <submitr+0xc6>
 80499a2:	83 ec 04             	sub    $0x4,%esp
 80499a5:	ff 75 08             	pushl  0x8(%ebp)
 80499a8:	68 84 a8 04 08       	push   $0x804a884
 80499ad:	ff 75 20             	pushl  0x20(%ebp)
 80499b0:	e8 2b f0 ff ff       	call   80489e0 <sprintf@plt>
 80499b5:	83 c4 10             	add    $0x10,%esp
 80499b8:	83 ec 0c             	sub    $0xc,%esp
 80499bb:	ff 75 e4             	pushl  -0x1c(%ebp)
 80499be:	e8 6d f0 ff ff       	call   8048a30 <close@plt>
 80499c3:	83 c4 10             	add    $0x10,%esp
 80499c6:	b8 ff ff ff ff       	mov    $0xffffffff,%eax
 80499cb:	e9 6b 05 00 00       	jmp    8049f3b <submitr+0x631>
 80499d0:	8d 45 c8             	lea    -0x38(%ebp),%eax
 80499d3:	c7 00 00 00 00 00    	movl   $0x0,(%eax)
 80499d9:	c7 40 04 00 00 00 00 	movl   $0x0,0x4(%eax)
 80499e0:	c7 40 08 00 00 00 00 	movl   $0x0,0x8(%eax)
 80499e7:	c7 40 0c 00 00 00 00 	movl   $0x0,0xc(%eax)
 80499ee:	66 c7 45 c8 02 00    	movw   $0x2,-0x38(%ebp)
 80499f4:	8b 45 e0             	mov    -0x20(%ebp),%eax
 80499f7:	8b 40 0c             	mov    0xc(%eax),%eax
 80499fa:	89 c2                	mov    %eax,%edx
 80499fc:	8b 45 e0             	mov    -0x20(%ebp),%eax
 80499ff:	8b 40 10             	mov    0x10(%eax),%eax
 8049a02:	8b 00                	mov    (%eax),%eax
 8049a04:	83 ec 04             	sub    $0x4,%esp
 8049a07:	52                   	push   %edx
 8049a08:	50                   	push   %eax
 8049a09:	8d 45 c8             	lea    -0x38(%ebp),%eax
 8049a0c:	83 c0 04             	add    $0x4,%eax
 8049a0f:	50                   	push   %eax
 8049a10:	e8 2b ee ff ff       	call   8048840 <memmove@plt>
 8049a15:	83 c4 10             	add    $0x10,%esp
 8049a18:	8b 45 0c             	mov    0xc(%ebp),%eax
 8049a1b:	0f b7 c0             	movzwl %ax,%eax
 8049a1e:	83 ec 0c             	sub    $0xc,%esp
 8049a21:	50                   	push   %eax
 8049a22:	e8 79 ee ff ff       	call   80488a0 <htons@plt>
 8049a27:	83 c4 10             	add    $0x10,%esp
 8049a2a:	66 89 45 ca          	mov    %ax,-0x36(%ebp)
 8049a2e:	83 ec 04             	sub    $0x4,%esp
 8049a31:	6a 10                	push   $0x10
 8049a33:	8d 45 c8             	lea    -0x38(%ebp),%eax
 8049a36:	50                   	push   %eax
 8049a37:	ff 75 e4             	pushl  -0x1c(%ebp)
 8049a3a:	e8 e1 ef ff ff       	call   8048a20 <connect@plt>
 8049a3f:	83 c4 10             	add    $0x10,%esp
 8049a42:	85 c0                	test   %eax,%eax
 8049a44:	79 2e                	jns    8049a74 <submitr+0x16a>
 8049a46:	83 ec 04             	sub    $0x4,%esp
 8049a49:	ff 75 08             	pushl  0x8(%ebp)
 8049a4c:	68 b0 a8 04 08       	push   $0x804a8b0
 8049a51:	ff 75 20             	pushl  0x20(%ebp)
 8049a54:	e8 87 ef ff ff       	call   80489e0 <sprintf@plt>
 8049a59:	83 c4 10             	add    $0x10,%esp
 8049a5c:	83 ec 0c             	sub    $0xc,%esp
 8049a5f:	ff 75 e4             	pushl  -0x1c(%ebp)
 8049a62:	e8 c9 ef ff ff       	call   8048a30 <close@plt>
 8049a67:	83 c4 10             	add    $0x10,%esp
 8049a6a:	b8 ff ff ff ff       	mov    $0xffffffff,%eax
 8049a6f:	e9 c7 04 00 00       	jmp    8049f3b <submitr+0x631>
 8049a74:	83 ec 0c             	sub    $0xc,%esp
 8049a77:	ff 75 1c             	pushl  0x1c(%ebp)
 8049a7a:	e8 c1 ee ff ff       	call   8048940 <strlen@plt>
 8049a7f:	83 c4 10             	add    $0x10,%esp
 8049a82:	89 45 dc             	mov    %eax,-0x24(%ebp)
 8049a85:	83 ec 0c             	sub    $0xc,%esp
 8049a88:	ff 75 10             	pushl  0x10(%ebp)
 8049a8b:	e8 b0 ee ff ff       	call   8048940 <strlen@plt>
 8049a90:	83 c4 10             	add    $0x10,%esp
 8049a93:	89 c3                	mov    %eax,%ebx
 8049a95:	83 ec 0c             	sub    $0xc,%esp
 8049a98:	ff 75 14             	pushl  0x14(%ebp)
 8049a9b:	e8 a0 ee ff ff       	call   8048940 <strlen@plt>
 8049aa0:	83 c4 10             	add    $0x10,%esp
 8049aa3:	01 c3                	add    %eax,%ebx
 8049aa5:	83 ec 0c             	sub    $0xc,%esp
 8049aa8:	ff 75 18             	pushl  0x18(%ebp)
 8049aab:	e8 90 ee ff ff       	call   8048940 <strlen@plt>
 8049ab0:	83 c4 10             	add    $0x10,%esp
 8049ab3:	8d 0c 03             	lea    (%ebx,%eax,1),%ecx
 8049ab6:	8b 55 dc             	mov    -0x24(%ebp),%edx
 8049ab9:	89 d0                	mov    %edx,%eax
 8049abb:	01 c0                	add    %eax,%eax
 8049abd:	01 d0                	add    %edx,%eax
 8049abf:	01 c8                	add    %ecx,%eax
 8049ac1:	83 e8 80             	sub    $0xffffff80,%eax
 8049ac4:	89 45 d8             	mov    %eax,-0x28(%ebp)
 8049ac7:	81 7d d8 00 20 00 00 	cmpl   $0x2000,-0x28(%ebp)
 8049ace:	76 7c                	jbe    8049b4c <submitr+0x242>
 8049ad0:	8b 45 20             	mov    0x20(%ebp),%eax
 8049ad3:	c7 00 45 72 72 6f    	movl   $0x6f727245,(%eax)
 8049ad9:	c7 40 04 72 3a 20 52 	movl   $0x52203a72,0x4(%eax)
 8049ae0:	c7 40 08 65 73 75 6c 	movl   $0x6c757365,0x8(%eax)
 8049ae7:	c7 40 0c 74 20 73 74 	movl   $0x74732074,0xc(%eax)
 8049aee:	c7 40 10 72 69 6e 67 	movl   $0x676e6972,0x10(%eax)
 8049af5:	c7 40 14 20 74 6f 6f 	movl   $0x6f6f7420,0x14(%eax)
 8049afc:	c7 40 18 20 6c 61 72 	movl   $0x72616c20,0x18(%eax)
 8049b03:	c7 40 1c 67 65 2e 20 	movl   $0x202e6567,0x1c(%eax)
 8049b0a:	c7 40 20 49 6e 63 72 	movl   $0x72636e49,0x20(%eax)
 8049b11:	c7 40 24 65 61 73 65 	movl   $0x65736165,0x24(%eax)
 8049b18:	c7 40 28 20 53 55 42 	movl   $0x42555320,0x28(%eax)
 8049b1f:	c7 40 2c 4d 49 54 52 	movl   $0x5254494d,0x2c(%eax)
 8049b26:	c7 40 30 5f 4d 41 58 	movl   $0x58414d5f,0x30(%eax)
 8049b2d:	c7 40 34 42 55 46 00 	movl   $0x465542,0x34(%eax)
 8049b34:	83 ec 0c             	sub    $0xc,%esp
 8049b37:	ff 75 e4             	pushl  -0x1c(%ebp)
 8049b3a:	e8 f1 ee ff ff       	call   8048a30 <close@plt>
 8049b3f:	83 c4 10             	add    $0x10,%esp
 8049b42:	b8 ff ff ff ff       	mov    $0xffffffff,%eax
 8049b47:	e9 ef 03 00 00       	jmp    8049f3b <submitr+0x631>
 8049b4c:	8d 85 bc 9f ff ff    	lea    -0x6044(%ebp),%eax
 8049b52:	89 c3                	mov    %eax,%ebx
 8049b54:	b8 00 00 00 00       	mov    $0x0,%eax
 8049b59:	ba 00 08 00 00       	mov    $0x800,%edx
 8049b5e:	89 df                	mov    %ebx,%edi
 8049b60:	89 d1                	mov    %edx,%ecx
 8049b62:	f3 ab                	rep stos %eax,%es:(%edi)
 8049b64:	83 ec 08             	sub    $0x8,%esp
 8049b67:	8d 85 bc 9f ff ff    	lea    -0x6044(%ebp),%eax
 8049b6d:	50                   	push   %eax
 8049b6e:	ff 75 1c             	pushl  0x1c(%ebp)
 8049b71:	e8 52 fc ff ff       	call   80497c8 <urlencode>
 8049b76:	83 c4 10             	add    $0x10,%esp
 8049b79:	85 c0                	test   %eax,%eax
 8049b7b:	79 4b                	jns    8049bc8 <submitr+0x2be>
 8049b7d:	8b 45 20             	mov    0x20(%ebp),%eax
 8049b80:	bb d8 a8 04 08       	mov    $0x804a8d8,%ebx
 8049b85:	ba 43 00 00 00       	mov    $0x43,%edx
 8049b8a:	8b 0b                	mov    (%ebx),%ecx
 8049b8c:	89 08                	mov    %ecx,(%eax)
 8049b8e:	8b 4c 13 fc          	mov    -0x4(%ebx,%edx,1),%ecx
 8049b92:	89 4c 10 fc          	mov    %ecx,-0x4(%eax,%edx,1)
 8049b96:	8d 78 04             	lea    0x4(%eax),%edi
 8049b99:	83 e7 fc             	and    $0xfffffffc,%edi
 8049b9c:	29 f8                	sub    %edi,%eax
 8049b9e:	29 c3                	sub    %eax,%ebx
 8049ba0:	01 c2                	add    %eax,%edx
 8049ba2:	83 e2 fc             	and    $0xfffffffc,%edx
 8049ba5:	89 d0                	mov    %edx,%eax
 8049ba7:	c1 e8 02             	shr    $0x2,%eax
 8049baa:	89 de                	mov    %ebx,%esi
 8049bac:	89 c1                	mov    %eax,%ecx
 8049bae:	f3 a5                	rep movsl %ds:(%esi),%es:(%edi)
 8049bb0:	83 ec 0c             	sub    $0xc,%esp
 8049bb3:	ff 75 e4             	pushl  -0x1c(%ebp)
 8049bb6:	e8 75 ee ff ff       	call   8048a30 <close@plt>
 8049bbb:	83 c4 10             	add    $0x10,%esp
 8049bbe:	b8 ff ff ff ff       	mov    $0xffffffff,%eax
 8049bc3:	e9 73 03 00 00       	jmp    8049f3b <submitr+0x631>
 8049bc8:	83 ec 08             	sub    $0x8,%esp
 8049bcb:	8d 85 bc 9f ff ff    	lea    -0x6044(%ebp),%eax
 8049bd1:	50                   	push   %eax
 8049bd2:	ff 75 18             	pushl  0x18(%ebp)
 8049bd5:	ff 75 14             	pushl  0x14(%ebp)
 8049bd8:	ff 75 10             	pushl  0x10(%ebp)
 8049bdb:	68 1c a9 04 08       	push   $0x804a91c
 8049be0:	8d 85 bc bf ff ff    	lea    -0x4044(%ebp),%eax
 8049be6:	50                   	push   %eax
 8049be7:	e8 f4 ed ff ff       	call   80489e0 <sprintf@plt>
 8049bec:	83 c4 20             	add    $0x20,%esp
 8049bef:	83 ec 0c             	sub    $0xc,%esp
 8049bf2:	8d 85 bc bf ff ff    	lea    -0x4044(%ebp),%eax
 8049bf8:	50                   	push   %eax
 8049bf9:	e8 42 ed ff ff       	call   8048940 <strlen@plt>
 8049bfe:	83 c4 10             	add    $0x10,%esp
 8049c01:	83 ec 04             	sub    $0x4,%esp
 8049c04:	50                   	push   %eax
 8049c05:	8d 85 bc bf ff ff    	lea    -0x4044(%ebp),%eax
 8049c0b:	50                   	push   %eax
 8049c0c:	ff 75 e4             	pushl  -0x1c(%ebp)
 8049c0f:	e8 50 fb ff ff       	call   8049764 <rio_writen>
 8049c14:	83 c4 10             	add    $0x10,%esp
 8049c17:	85 c0                	test   %eax,%eax
 8049c19:	79 67                	jns    8049c82 <submitr+0x378>
 8049c1b:	8b 45 20             	mov    0x20(%ebp),%eax
 8049c1e:	c7 00 45 72 72 6f    	movl   $0x6f727245,(%eax)
 8049c24:	c7 40 04 72 3a 20 43 	movl   $0x43203a72,0x4(%eax)
 8049c2b:	c7 40 08 6c 69 65 6e 	movl   $0x6e65696c,0x8(%eax)
 8049c32:	c7 40 0c 74 20 75 6e 	movl   $0x6e752074,0xc(%eax)
 8049c39:	c7 40 10 61 62 6c 65 	movl   $0x656c6261,0x10(%eax)
 8049c40:	c7 40 14 20 74 6f 20 	movl   $0x206f7420,0x14(%eax)
 8049c47:	c7 40 18 77 72 69 74 	movl   $0x74697277,0x18(%eax)
 8049c4e:	c7 40 1c 65 20 74 6f 	movl   $0x6f742065,0x1c(%eax)
 8049c55:	c7 40 20 20 74 68 65 	movl   $0x65687420,0x20(%eax)
 8049c5c:	c7 40 24 20 73 65 72 	movl   $0x72657320,0x24(%eax)
 8049c63:	c7 40 28 76 65 72 00 	movl   $0x726576,0x28(%eax)
 8049c6a:	83 ec 0c             	sub    $0xc,%esp
 8049c6d:	ff 75 e4             	pushl  -0x1c(%ebp)
 8049c70:	e8 bb ed ff ff       	call   8048a30 <close@plt>
 8049c75:	83 c4 10             	add    $0x10,%esp
 8049c78:	b8 ff ff ff ff       	mov    $0xffffffff,%eax
 8049c7d:	e9 b9 02 00 00       	jmp    8049f3b <submitr+0x631>
 8049c82:	83 ec 08             	sub    $0x8,%esp
 8049c85:	ff 75 e4             	pushl  -0x1c(%ebp)
 8049c88:	8d 85 bc df ff ff    	lea    -0x2044(%ebp),%eax
 8049c8e:	50                   	push   %eax
 8049c8f:	e8 62 f9 ff ff       	call   80495f6 <rio_readinitb>
 8049c94:	83 c4 10             	add    $0x10,%esp
 8049c97:	83 ec 04             	sub    $0x4,%esp
 8049c9a:	68 00 20 00 00       	push   $0x2000
 8049c9f:	8d 85 bc bf ff ff    	lea    -0x4044(%ebp),%eax
 8049ca5:	50                   	push   %eax
 8049ca6:	8d 85 bc df ff ff    	lea    -0x2044(%ebp),%eax
 8049cac:	50                   	push   %eax
 8049cad:	e8 33 fa ff ff       	call   80496e5 <rio_readlineb>
 8049cb2:	83 c4 10             	add    $0x10,%esp
 8049cb5:	85 c0                	test   %eax,%eax
 8049cb7:	7f 7b                	jg     8049d34 <submitr+0x42a>
 8049cb9:	8b 45 20             	mov    0x20(%ebp),%eax
 8049cbc:	c7 00 45 72 72 6f    	movl   $0x6f727245,(%eax)
 8049cc2:	c7 40 04 72 3a 20 43 	movl   $0x43203a72,0x4(%eax)
 8049cc9:	c7 40 08 6c 69 65 6e 	movl   $0x6e65696c,0x8(%eax)
 8049cd0:	c7 40 0c 74 20 75 6e 	movl   $0x6e752074,0xc(%eax)
 8049cd7:	c7 40 10 61 62 6c 65 	movl   $0x656c6261,0x10(%eax)
 8049cde:	c7 40 14 20 74 6f 20 	movl   $0x206f7420,0x14(%eax)
 8049ce5:	c7 40 18 72 65 61 64 	movl   $0x64616572,0x18(%eax)
 8049cec:	c7 40 1c 20 66 69 72 	movl   $0x72696620,0x1c(%eax)
 8049cf3:	c7 40 20 73 74 20 68 	movl   $0x68207473,0x20(%eax)
 8049cfa:	c7 40 24 65 61 64 65 	movl   $0x65646165,0x24(%eax)
 8049d01:	c7 40 28 72 20 66 72 	movl   $0x72662072,0x28(%eax)
 8049d08:	c7 40 2c 6f 6d 20 73 	movl   $0x73206d6f,0x2c(%eax)
 8049d0f:	c7 40 30 65 72 76 65 	movl   $0x65767265,0x30(%eax)
 8049d16:	66 c7 40 34 72 00    	movw   $0x72,0x34(%eax)
 8049d1c:	83 ec 0c             	sub    $0xc,%esp
 8049d1f:	ff 75 e4             	pushl  -0x1c(%ebp)
 8049d22:	e8 09 ed ff ff       	call   8048a30 <close@plt>
 8049d27:	83 c4 10             	add    $0x10,%esp
 8049d2a:	b8 ff ff ff ff       	mov    $0xffffffff,%eax
 8049d2f:	e9 07 02 00 00       	jmp    8049f3b <submitr+0x631>
 8049d34:	83 ec 0c             	sub    $0xc,%esp
 8049d37:	8d 85 b8 5f ff ff    	lea    -0xa048(%ebp),%eax
 8049d3d:	50                   	push   %eax
 8049d3e:	8d 85 b8 7f ff ff    	lea    -0x8048(%ebp),%eax
 8049d44:	50                   	push   %eax
 8049d45:	8d 85 bc 7f ff ff    	lea    -0x8044(%ebp),%eax
 8049d4b:	50                   	push   %eax
 8049d4c:	68 66 a9 04 08       	push   $0x804a966
 8049d51:	8d 85 bc bf ff ff    	lea    -0x4044(%ebp),%eax
 8049d57:	50                   	push   %eax
 8049d58:	e8 33 ec ff ff       	call   8048990 <__isoc99_sscanf@plt>
 8049d5d:	83 c4 20             	add    $0x20,%esp
 8049d60:	8b 85 b8 7f ff ff    	mov    -0x8048(%ebp),%eax
 8049d66:	3d c8 00 00 00       	cmp    $0xc8,%eax
 8049d6b:	0f 84 ca 00 00 00    	je     8049e3b <submitr+0x531>
 8049d71:	8b 85 b8 7f ff ff    	mov    -0x8048(%ebp),%eax
 8049d77:	8d 95 b8 5f ff ff    	lea    -0xa048(%ebp),%edx
 8049d7d:	52                   	push   %edx
 8049d7e:	50                   	push   %eax
 8049d7f:	68 78 a9 04 08       	push   $0x804a978
 8049d84:	ff 75 20             	pushl  0x20(%ebp)
 8049d87:	e8 54 ec ff ff       	call   80489e0 <sprintf@plt>
 8049d8c:	83 c4 10             	add    $0x10,%esp
 8049d8f:	83 ec 0c             	sub    $0xc,%esp
 8049d92:	ff 75 e4             	pushl  -0x1c(%ebp)
 8049d95:	e8 96 ec ff ff       	call   8048a30 <close@plt>
 8049d9a:	83 c4 10             	add    $0x10,%esp
 8049d9d:	b8 ff ff ff ff       	mov    $0xffffffff,%eax
 8049da2:	e9 94 01 00 00       	jmp    8049f3b <submitr+0x631>
 8049da7:	83 ec 04             	sub    $0x4,%esp
 8049daa:	68 00 20 00 00       	push   $0x2000
 8049daf:	8d 85 bc bf ff ff    	lea    -0x4044(%ebp),%eax
 8049db5:	50                   	push   %eax
 8049db6:	8d 85 bc df ff ff    	lea    -0x2044(%ebp),%eax
 8049dbc:	50                   	push   %eax
 8049dbd:	e8 23 f9 ff ff       	call   80496e5 <rio_readlineb>
 8049dc2:	83 c4 10             	add    $0x10,%esp
 8049dc5:	85 c0                	test   %eax,%eax
 8049dc7:	7f 72                	jg     8049e3b <submitr+0x531>
 8049dc9:	8b 45 20             	mov    0x20(%ebp),%eax
 8049dcc:	c7 00 45 72 72 6f    	movl   $0x6f727245,(%eax)
 8049dd2:	c7 40 04 72 3a 20 43 	movl   $0x43203a72,0x4(%eax)
 8049dd9:	c7 40 08 6c 69 65 6e 	movl   $0x6e65696c,0x8(%eax)
 8049de0:	c7 40 0c 74 20 75 6e 	movl   $0x6e752074,0xc(%eax)
 8049de7:	c7 40 10 61 62 6c 65 	movl   $0x656c6261,0x10(%eax)
 8049dee:	c7 40 14 20 74 6f 20 	movl   $0x206f7420,0x14(%eax)
 8049df5:	c7 40 18 72 65 61 64 	movl   $0x64616572,0x18(%eax)
 8049dfc:	c7 40 1c 20 68 65 61 	movl   $0x61656820,0x1c(%eax)
 8049e03:	c7 40 20 64 65 72 73 	movl   $0x73726564,0x20(%eax)
 8049e0a:	c7 40 24 20 66 72 6f 	movl   $0x6f726620,0x24(%eax)
 8049e11:	c7 40 28 6d 20 73 65 	movl   $0x6573206d,0x28(%eax)
 8049e18:	c7 40 2c 72 76 65 72 	movl   $0x72657672,0x2c(%eax)
 8049e1f:	c6 40 30 00          	movb   $0x0,0x30(%eax)
 8049e23:	83 ec 0c             	sub    $0xc,%esp
 8049e26:	ff 75 e4             	pushl  -0x1c(%ebp)
 8049e29:	e8 02 ec ff ff       	call   8048a30 <close@plt>
 8049e2e:	83 c4 10             	add    $0x10,%esp
 8049e31:	b8 ff ff ff ff       	mov    $0xffffffff,%eax
 8049e36:	e9 00 01 00 00       	jmp    8049f3b <submitr+0x631>
 8049e3b:	83 ec 08             	sub    $0x8,%esp
 8049e3e:	68 a5 a9 04 08       	push   $0x804a9a5
 8049e43:	8d 85 bc bf ff ff    	lea    -0x4044(%ebp),%eax
 8049e49:	50                   	push   %eax
 8049e4a:	e8 b1 e9 ff ff       	call   8048800 <strcmp@plt>
 8049e4f:	83 c4 10             	add    $0x10,%esp
 8049e52:	85 c0                	test   %eax,%eax
 8049e54:	0f 85 4d ff ff ff    	jne    8049da7 <submitr+0x49d>
 8049e5a:	83 ec 04             	sub    $0x4,%esp
 8049e5d:	68 00 20 00 00       	push   $0x2000
 8049e62:	8d 85 bc bf ff ff    	lea    -0x4044(%ebp),%eax
 8049e68:	50                   	push   %eax
 8049e69:	8d 85 bc df ff ff    	lea    -0x2044(%ebp),%eax
 8049e6f:	50                   	push   %eax
 8049e70:	e8 70 f8 ff ff       	call   80496e5 <rio_readlineb>
 8049e75:	83 c4 10             	add    $0x10,%esp
 8049e78:	85 c0                	test   %eax,%eax
 8049e7a:	7f 79                	jg     8049ef5 <submitr+0x5eb>
 8049e7c:	8b 45 20             	mov    0x20(%ebp),%eax
 8049e7f:	c7 00 45 72 72 6f    	movl   $0x6f727245,(%eax)
 8049e85:	c7 40 04 72 3a 20 43 	movl   $0x43203a72,0x4(%eax)
 8049e8c:	c7 40 08 6c 69 65 6e 	movl   $0x6e65696c,0x8(%eax)
 8049e93:	c7 40 0c 74 20 75 6e 	movl   $0x6e752074,0xc(%eax)
 8049e9a:	c7 40 10 61 62 6c 65 	movl   $0x656c6261,0x10(%eax)
 8049ea1:	c7 40 14 20 74 6f 20 	movl   $0x206f7420,0x14(%eax)
 8049ea8:	c7 40 18 72 65 61 64 	movl   $0x64616572,0x18(%eax)
 8049eaf:	c7 40 1c 20 73 74 61 	movl   $0x61747320,0x1c(%eax)
 8049eb6:	c7 40 20 74 75 73 20 	movl   $0x20737574,0x20(%eax)
 8049ebd:	c7 40 24 6d 65 73 73 	movl   $0x7373656d,0x24(%eax)
 8049ec4:	c7 40 28 61 67 65 20 	movl   $0x20656761,0x28(%eax)
 8049ecb:	c7 40 2c 66 72 6f 6d 	movl   $0x6d6f7266,0x2c(%eax)
 8049ed2:	c7 40 30 20 73 65 72 	movl   $0x72657320,0x30(%eax)
 8049ed9:	c7 40 34 76 65 72 00 	movl   $0x726576,0x34(%eax)
 8049ee0:	83 ec 0c             	sub    $0xc,%esp
 8049ee3:	ff 75 e4             	pushl  -0x1c(%ebp)
 8049ee6:	e8 45 eb ff ff       	call   8048a30 <close@plt>
 8049eeb:	83 c4 10             	add    $0x10,%esp
 8049eee:	b8 ff ff ff ff       	mov    $0xffffffff,%eax
 8049ef3:	eb 46                	jmp    8049f3b <submitr+0x631>
 8049ef5:	83 ec 08             	sub    $0x8,%esp
 8049ef8:	8d 85 bc bf ff ff    	lea    -0x4044(%ebp),%eax
 8049efe:	50                   	push   %eax
 8049eff:	ff 75 20             	pushl  0x20(%ebp)
 8049f02:	e8 b9 e9 ff ff       	call   80488c0 <strcpy@plt>
 8049f07:	83 c4 10             	add    $0x10,%esp
 8049f0a:	83 ec 0c             	sub    $0xc,%esp
 8049f0d:	ff 75 e4             	pushl  -0x1c(%ebp)
 8049f10:	e8 1b eb ff ff       	call   8048a30 <close@plt>
 8049f15:	83 c4 10             	add    $0x10,%esp
 8049f18:	83 ec 08             	sub    $0x8,%esp
 8049f1b:	68 a8 a9 04 08       	push   $0x804a9a8
 8049f20:	ff 75 20             	pushl  0x20(%ebp)
 8049f23:	e8 d8 e8 ff ff       	call   8048800 <strcmp@plt>
 8049f28:	83 c4 10             	add    $0x10,%esp
 8049f2b:	85 c0                	test   %eax,%eax
 8049f2d:	75 07                	jne    8049f36 <submitr+0x62c>
 8049f2f:	b8 00 00 00 00       	mov    $0x0,%eax
 8049f34:	eb 05                	jmp    8049f3b <submitr+0x631>
 8049f36:	b8 ff ff ff ff       	mov    $0xffffffff,%eax
 8049f3b:	8d 65 f4             	lea    -0xc(%ebp),%esp
 8049f3e:	5b                   	pop    %ebx
 8049f3f:	5e                   	pop    %esi
 8049f40:	5f                   	pop    %edi
 8049f41:	5d                   	pop    %ebp
 8049f42:	c3                   	ret    

08049f43 <init_timeout>:
 8049f43:	55                   	push   %ebp
 8049f44:	89 e5                	mov    %esp,%ebp
 8049f46:	83 ec 08             	sub    $0x8,%esp
 8049f49:	83 7d 08 00          	cmpl   $0x0,0x8(%ebp)
 8049f4d:	74 30                	je     8049f7f <init_timeout+0x3c>
 8049f4f:	83 7d 08 00          	cmpl   $0x0,0x8(%ebp)
 8049f53:	79 07                	jns    8049f5c <init_timeout+0x19>
 8049f55:	c7 45 08 02 00 00 00 	movl   $0x2,0x8(%ebp)
 8049f5c:	83 ec 08             	sub    $0x8,%esp
 8049f5f:	68 d4 95 04 08       	push   $0x80495d4
 8049f64:	6a 0e                	push   $0xe
 8049f66:	e8 05 e9 ff ff       	call   8048870 <signal@plt>
 8049f6b:	83 c4 10             	add    $0x10,%esp
 8049f6e:	8b 45 08             	mov    0x8(%ebp),%eax
 8049f71:	83 ec 0c             	sub    $0xc,%esp
 8049f74:	50                   	push   %eax
 8049f75:	e8 06 e9 ff ff       	call   8048880 <alarm@plt>
 8049f7a:	83 c4 10             	add    $0x10,%esp
 8049f7d:	eb 01                	jmp    8049f80 <init_timeout+0x3d>
 8049f7f:	90                   	nop
 8049f80:	c9                   	leave  
 8049f81:	c3                   	ret    

08049f82 <init_driver>:
 8049f82:	55                   	push   %ebp
 8049f83:	89 e5                	mov    %esp,%ebp
 8049f85:	83 ec 28             	sub    $0x28,%esp
 8049f88:	c7 45 f4 ab a9 04 08 	movl   $0x804a9ab,-0xc(%ebp)
 8049f8f:	c7 45 f0 26 47 00 00 	movl   $0x4726,-0x10(%ebp)
 8049f96:	83 ec 08             	sub    $0x8,%esp
 8049f99:	6a 01                	push   $0x1
 8049f9b:	6a 0d                	push   $0xd
 8049f9d:	e8 ce e8 ff ff       	call   8048870 <signal@plt>
 8049fa2:	83 c4 10             	add    $0x10,%esp
 8049fa5:	83 ec 08             	sub    $0x8,%esp
 8049fa8:	6a 01                	push   $0x1
 8049faa:	6a 1d                	push   $0x1d
 8049fac:	e8 bf e8 ff ff       	call   8048870 <signal@plt>
 8049fb1:	83 c4 10             	add    $0x10,%esp
 8049fb4:	83 ec 08             	sub    $0x8,%esp
 8049fb7:	6a 01                	push   $0x1
 8049fb9:	6a 1d                	push   $0x1d
 8049fbb:	e8 b0 e8 ff ff       	call   8048870 <signal@plt>
 8049fc0:	83 c4 10             	add    $0x10,%esp
 8049fc3:	83 ec 04             	sub    $0x4,%esp
 8049fc6:	6a 00                	push   $0x0
 8049fc8:	6a 01                	push   $0x1
 8049fca:	6a 02                	push   $0x2
 8049fcc:	e8 1f ea ff ff       	call   80489f0 <socket@plt>
 8049fd1:	83 c4 10             	add    $0x10,%esp
 8049fd4:	89 45 ec             	mov    %eax,-0x14(%ebp)
 8049fd7:	83 7d ec 00          	cmpl   $0x0,-0x14(%ebp)
 8049fdb:	79 51                	jns    804a02e <init_driver+0xac>
 8049fdd:	8b 45 08             	mov    0x8(%ebp),%eax
 8049fe0:	c7 00 45 72 72 6f    	movl   $0x6f727245,(%eax)
 8049fe6:	c7 40 04 72 3a 20 43 	movl   $0x43203a72,0x4(%eax)
 8049fed:	c7 40 08 6c 69 65 6e 	movl   $0x6e65696c,0x8(%eax)
 8049ff4:	c7 40 0c 74 20 75 6e 	movl   $0x6e752074,0xc(%eax)
 8049ffb:	c7 40 10 61 62 6c 65 	movl   $0x656c6261,0x10(%eax)
 804a002:	c7 40 14 20 74 6f 20 	movl   $0x206f7420,0x14(%eax)
 804a009:	c7 40 18 63 72 65 61 	movl   $0x61657263,0x18(%eax)
 804a010:	c7 40 1c 74 65 20 73 	movl   $0x73206574,0x1c(%eax)
 804a017:	c7 40 20 6f 63 6b 65 	movl   $0x656b636f,0x20(%eax)
 804a01e:	66 c7 40 24 74 00    	movw   $0x74,0x24(%eax)
 804a024:	b8 ff ff ff ff       	mov    $0xffffffff,%eax
 804a029:	e9 05 01 00 00       	jmp    804a133 <init_driver+0x1b1>
 804a02e:	83 ec 0c             	sub    $0xc,%esp
 804a031:	ff 75 f4             	pushl  -0xc(%ebp)
 804a034:	e8 d7 e9 ff ff       	call   8048a10 <gethostbyname@plt>
 804a039:	83 c4 10             	add    $0x10,%esp
 804a03c:	89 45 e8             	mov    %eax,-0x18(%ebp)
 804a03f:	83 7d e8 00          	cmpl   $0x0,-0x18(%ebp)
 804a043:	75 2e                	jne    804a073 <init_driver+0xf1>
 804a045:	83 ec 04             	sub    $0x4,%esp
 804a048:	ff 75 f4             	pushl  -0xc(%ebp)
 804a04b:	68 84 a8 04 08       	push   $0x804a884
 804a050:	ff 75 08             	pushl  0x8(%ebp)
 804a053:	e8 88 e9 ff ff       	call   80489e0 <sprintf@plt>
 804a058:	83 c4 10             	add    $0x10,%esp
 804a05b:	83 ec 0c             	sub    $0xc,%esp
 804a05e:	ff 75 ec             	pushl  -0x14(%ebp)
 804a061:	e8 ca e9 ff ff       	call   8048a30 <close@plt>
 804a066:	83 c4 10             	add    $0x10,%esp
 804a069:	b8 ff ff ff ff       	mov    $0xffffffff,%eax
 804a06e:	e9 c0 00 00 00       	jmp    804a133 <init_driver+0x1b1>
 804a073:	8d 45 d8             	lea    -0x28(%ebp),%eax
 804a076:	c7 00 00 00 00 00    	movl   $0x0,(%eax)
 804a07c:	c7 40 04 00 00 00 00 	movl   $0x0,0x4(%eax)
 804a083:	c7 40 08 00 00 00 00 	movl   $0x0,0x8(%eax)
 804a08a:	c7 40 0c 00 00 00 00 	movl   $0x0,0xc(%eax)
 804a091:	66 c7 45 d8 02 00    	movw   $0x2,-0x28(%ebp)
 804a097:	8b 45 e8             	mov    -0x18(%ebp),%eax
 804a09a:	8b 40 0c             	mov    0xc(%eax),%eax
 804a09d:	89 c2                	mov    %eax,%edx
 804a09f:	8b 45 e8             	mov    -0x18(%ebp),%eax
 804a0a2:	8b 40 10             	mov    0x10(%eax),%eax
 804a0a5:	8b 00                	mov    (%eax),%eax
 804a0a7:	83 ec 04             	sub    $0x4,%esp
 804a0aa:	52                   	push   %edx
 804a0ab:	50                   	push   %eax
 804a0ac:	8d 45 d8             	lea    -0x28(%ebp),%eax
 804a0af:	83 c0 04             	add    $0x4,%eax
 804a0b2:	50                   	push   %eax
 804a0b3:	e8 88 e7 ff ff       	call   8048840 <memmove@plt>
 804a0b8:	83 c4 10             	add    $0x10,%esp
 804a0bb:	8b 45 f0             	mov    -0x10(%ebp),%eax
 804a0be:	0f b7 c0             	movzwl %ax,%eax
 804a0c1:	83 ec 0c             	sub    $0xc,%esp
 804a0c4:	50                   	push   %eax
 804a0c5:	e8 d6 e7 ff ff       	call   80488a0 <htons@plt>
 804a0ca:	83 c4 10             	add    $0x10,%esp
 804a0cd:	66 89 45 da          	mov    %ax,-0x26(%ebp)
 804a0d1:	83 ec 04             	sub    $0x4,%esp
 804a0d4:	6a 10                	push   $0x10
 804a0d6:	8d 45 d8             	lea    -0x28(%ebp),%eax
 804a0d9:	50                   	push   %eax
 804a0da:	ff 75 ec             	pushl  -0x14(%ebp)
 804a0dd:	e8 3e e9 ff ff       	call   8048a20 <connect@plt>
 804a0e2:	83 c4 10             	add    $0x10,%esp
 804a0e5:	85 c0                	test   %eax,%eax
 804a0e7:	79 2b                	jns    804a114 <init_driver+0x192>
 804a0e9:	ff 75 f0             	pushl  -0x10(%ebp)
 804a0ec:	ff 75 f4             	pushl  -0xc(%ebp)
 804a0ef:	68 c8 a9 04 08       	push   $0x804a9c8
 804a0f4:	ff 75 08             	pushl  0x8(%ebp)
 804a0f7:	e8 e4 e8 ff ff       	call   80489e0 <sprintf@plt>
 804a0fc:	83 c4 10             	add    $0x10,%esp
 804a0ff:	83 ec 0c             	sub    $0xc,%esp
 804a102:	ff 75 ec             	pushl  -0x14(%ebp)
 804a105:	e8 26 e9 ff ff       	call   8048a30 <close@plt>
 804a10a:	83 c4 10             	add    $0x10,%esp
 804a10d:	b8 ff ff ff ff       	mov    $0xffffffff,%eax
 804a112:	eb 1f                	jmp    804a133 <init_driver+0x1b1>
 804a114:	83 ec 0c             	sub    $0xc,%esp
 804a117:	ff 75 ec             	pushl  -0x14(%ebp)
 804a11a:	e8 11 e9 ff ff       	call   8048a30 <close@plt>
 804a11f:	83 c4 10             	add    $0x10,%esp
 804a122:	8b 45 08             	mov    0x8(%ebp),%eax
 804a125:	66 c7 00 4f 4b       	movw   $0x4b4f,(%eax)
 804a12a:	c6 40 02 00          	movb   $0x0,0x2(%eax)
 804a12e:	b8 00 00 00 00       	mov    $0x0,%eax
 804a133:	c9                   	leave  
 804a134:	c3                   	ret    

0804a135 <driver_post>:
 804a135:	55                   	push   %ebp
 804a136:	89 e5                	mov    %esp,%ebp
 804a138:	83 ec 18             	sub    $0x18,%esp
 804a13b:	83 7d 10 00          	cmpl   $0x0,0x10(%ebp)
 804a13f:	74 26                	je     804a167 <driver_post+0x32>
 804a141:	83 ec 08             	sub    $0x8,%esp
 804a144:	ff 75 0c             	pushl  0xc(%ebp)
 804a147:	68 f1 a9 04 08       	push   $0x804a9f1
 804a14c:	e8 df e6 ff ff       	call   8048830 <printf@plt>
 804a151:	83 c4 10             	add    $0x10,%esp
 804a154:	8b 45 14             	mov    0x14(%ebp),%eax
 804a157:	66 c7 00 4f 4b       	movw   $0x4b4f,(%eax)
 804a15c:	c6 40 02 00          	movb   $0x0,0x2(%eax)
 804a160:	b8 00 00 00 00       	mov    $0x0,%eax
 804a165:	eb 54                	jmp    804a1bb <driver_post+0x86>
 804a167:	83 7d 08 00          	cmpl   $0x0,0x8(%ebp)
 804a16b:	74 3d                	je     804a1aa <driver_post+0x75>
 804a16d:	8b 45 08             	mov    0x8(%ebp),%eax
 804a170:	0f b6 00             	movzbl (%eax),%eax
 804a173:	0f b6 c0             	movzbl %al,%eax
 804a176:	85 c0                	test   %eax,%eax
 804a178:	74 30                	je     804a1aa <driver_post+0x75>
 804a17a:	83 ec 04             	sub    $0x4,%esp
 804a17d:	ff 75 14             	pushl  0x14(%ebp)
 804a180:	ff 75 0c             	pushl  0xc(%ebp)
 804a183:	68 08 aa 04 08       	push   $0x804aa08
 804a188:	ff 75 08             	pushl  0x8(%ebp)
 804a18b:	68 0f aa 04 08       	push   $0x804aa0f
 804a190:	68 26 47 00 00       	push   $0x4726
 804a195:	68 ab a9 04 08       	push   $0x804a9ab
 804a19a:	e8 6b f7 ff ff       	call   804990a <submitr>
 804a19f:	83 c4 20             	add    $0x20,%esp
 804a1a2:	89 45 f4             	mov    %eax,-0xc(%ebp)
 804a1a5:	8b 45 f4             	mov    -0xc(%ebp),%eax
 804a1a8:	eb 11                	jmp    804a1bb <driver_post+0x86>
 804a1aa:	8b 45 14             	mov    0x14(%ebp),%eax
 804a1ad:	66 c7 00 4f 4b       	movw   $0x4b4f,(%eax)
 804a1b2:	c6 40 02 00          	movb   $0x0,0x2(%eax)
 804a1b6:	b8 00 00 00 00       	mov    $0x0,%eax
 804a1bb:	c9                   	leave  
 804a1bc:	c3                   	ret    

0804a1bd <hash>:
 804a1bd:	55                   	push   %ebp
 804a1be:	89 e5                	mov    %esp,%ebp
 804a1c0:	83 ec 10             	sub    $0x10,%esp
 804a1c3:	c7 45 fc 00 00 00 00 	movl   $0x0,-0x4(%ebp)
 804a1ca:	eb 1a                	jmp    804a1e6 <hash+0x29>
 804a1cc:	8b 45 fc             	mov    -0x4(%ebp),%eax
 804a1cf:	6b c8 67             	imul   $0x67,%eax,%ecx
 804a1d2:	8b 45 08             	mov    0x8(%ebp),%eax
 804a1d5:	8d 50 01             	lea    0x1(%eax),%edx
 804a1d8:	89 55 08             	mov    %edx,0x8(%ebp)
 804a1db:	0f b6 00             	movzbl (%eax),%eax
 804a1de:	0f be c0             	movsbl %al,%eax
 804a1e1:	01 c8                	add    %ecx,%eax
 804a1e3:	89 45 fc             	mov    %eax,-0x4(%ebp)
 804a1e6:	8b 45 08             	mov    0x8(%ebp),%eax
 804a1e9:	0f b6 00             	movzbl (%eax),%eax
 804a1ec:	84 c0                	test   %al,%al
 804a1ee:	75 dc                	jne    804a1cc <hash+0xf>
 804a1f0:	8b 45 fc             	mov    -0x4(%ebp),%eax
 804a1f3:	c9                   	leave  
 804a1f4:	c3                   	ret    

0804a1f5 <check>:
 804a1f5:	55                   	push   %ebp
 804a1f6:	89 e5                	mov    %esp,%ebp
 804a1f8:	83 ec 10             	sub    $0x10,%esp
 804a1fb:	8b 45 08             	mov    0x8(%ebp),%eax
 804a1fe:	c1 e8 1c             	shr    $0x1c,%eax
 804a201:	85 c0                	test   %eax,%eax
 804a203:	75 07                	jne    804a20c <check+0x17>
 804a205:	b8 00 00 00 00       	mov    $0x0,%eax
 804a20a:	eb 33                	jmp    804a23f <check+0x4a>
 804a20c:	c7 45 fc 00 00 00 00 	movl   $0x0,-0x4(%ebp)
 804a213:	eb 1f                	jmp    804a234 <check+0x3f>
 804a215:	8b 45 fc             	mov    -0x4(%ebp),%eax
 804a218:	8b 55 08             	mov    0x8(%ebp),%edx
 804a21b:	89 c1                	mov    %eax,%ecx
 804a21d:	d3 ea                	shr    %cl,%edx
 804a21f:	89 d0                	mov    %edx,%eax
 804a221:	0f b6 c0             	movzbl %al,%eax
 804a224:	83 f8 0a             	cmp    $0xa,%eax
 804a227:	75 07                	jne    804a230 <check+0x3b>
 804a229:	b8 00 00 00 00       	mov    $0x0,%eax
 804a22e:	eb 0f                	jmp    804a23f <check+0x4a>
 804a230:	83 45 fc 08          	addl   $0x8,-0x4(%ebp)
 804a234:	83 7d fc 1f          	cmpl   $0x1f,-0x4(%ebp)
 804a238:	7e db                	jle    804a215 <check+0x20>
 804a23a:	b8 01 00 00 00       	mov    $0x1,%eax
 804a23f:	c9                   	leave  
 804a240:	c3                   	ret    

0804a241 <gencookie>:
 804a241:	55                   	push   %ebp
 804a242:	89 e5                	mov    %esp,%ebp
 804a244:	83 ec 18             	sub    $0x18,%esp
 804a247:	ff 75 08             	pushl  0x8(%ebp)
 804a24a:	e8 6e ff ff ff       	call   804a1bd <hash>
 804a24f:	83 c4 04             	add    $0x4,%esp
 804a252:	83 ec 0c             	sub    $0xc,%esp
 804a255:	50                   	push   %eax
 804a256:	e8 c5 e6 ff ff       	call   8048920 <srand@plt>
 804a25b:	83 c4 10             	add    $0x10,%esp
 804a25e:	e8 5d e7 ff ff       	call   80489c0 <rand@plt>
 804a263:	89 45 f4             	mov    %eax,-0xc(%ebp)
 804a266:	83 ec 0c             	sub    $0xc,%esp
 804a269:	ff 75 f4             	pushl  -0xc(%ebp)
 804a26c:	e8 84 ff ff ff       	call   804a1f5 <check>
 804a271:	83 c4 10             	add    $0x10,%esp
 804a274:	85 c0                	test   %eax,%eax
 804a276:	74 e6                	je     804a25e <gencookie+0x1d>
 804a278:	8b 45 f4             	mov    -0xc(%ebp),%eax
 804a27b:	c9                   	leave  
 804a27c:	c3                   	ret    
 804a27d:	66 90                	xchg   %ax,%ax
 804a27f:	90                   	nop

0804a280 <__libc_csu_init>:
 804a280:	55                   	push   %ebp
 804a281:	57                   	push   %edi
 804a282:	56                   	push   %esi
 804a283:	53                   	push   %ebx
 804a284:	e8 17 e8 ff ff       	call   8048aa0 <__x86.get_pc_thunk.bx>
 804a289:	81 c3 77 2d 00 00    	add    $0x2d77,%ebx
 804a28f:	83 ec 0c             	sub    $0xc,%esp
 804a292:	8b 6c 24 28          	mov    0x28(%esp),%ebp
 804a296:	e8 29 e5 ff ff       	call   80487c4 <_init>
 804a29b:	8d b3 10 ff ff ff    	lea    -0xf0(%ebx),%esi
 804a2a1:	8d 83 0c ff ff ff    	lea    -0xf4(%ebx),%eax
 804a2a7:	29 c6                	sub    %eax,%esi
 804a2a9:	c1 fe 02             	sar    $0x2,%esi
 804a2ac:	74 1f                	je     804a2cd <__libc_csu_init+0x4d>
 804a2ae:	31 ff                	xor    %edi,%edi
 804a2b0:	83 ec 04             	sub    $0x4,%esp
 804a2b3:	55                   	push   %ebp
 804a2b4:	ff 74 24 2c          	pushl  0x2c(%esp)
 804a2b8:	ff 74 24 2c          	pushl  0x2c(%esp)
 804a2bc:	ff 94 bb 0c ff ff ff 	call   *-0xf4(%ebx,%edi,4)
 804a2c3:	83 c7 01             	add    $0x1,%edi
 804a2c6:	83 c4 10             	add    $0x10,%esp
 804a2c9:	39 fe                	cmp    %edi,%esi
 804a2cb:	75 e3                	jne    804a2b0 <__libc_csu_init+0x30>
 804a2cd:	83 c4 0c             	add    $0xc,%esp
 804a2d0:	5b                   	pop    %ebx
 804a2d1:	5e                   	pop    %esi
 804a2d2:	5f                   	pop    %edi
 804a2d3:	5d                   	pop    %ebp
 804a2d4:	c3                   	ret    
 804a2d5:	8d 74 26 00          	lea    0x0(%esi,%eiz,1),%esi
 804a2d9:	8d bc 27 00 00 00 00 	lea    0x0(%edi,%eiz,1),%edi

0804a2e0 <__libc_csu_fini>:
 804a2e0:	c3                   	ret    

Disassembly of section .fini:

0804a2e4 <_fini>:
 804a2e4:	53                   	push   %ebx
 804a2e5:	83 ec 08             	sub    $0x8,%esp
 804a2e8:	e8 b3 e7 ff ff       	call   8048aa0 <__x86.get_pc_thunk.bx>
 804a2ed:	81 c3 13 2d 00 00    	add    $0x2d13,%ebx
 804a2f3:	83 c4 08             	add    $0x8,%esp
 804a2f6:	5b                   	pop    %ebx
 804a2f7:	c3                   	ret    
